

Microchip Technology PIC PRO Macro Assembler V1.45 build -152302408 
                                                                                               Tue Feb 03 19:47:29 2026

Microchip Technology Omniscient Code Generator v1.45 (PRO mode) build 201711160504
     1                           	processor	79F726
     2                           	opt	pw 120
     3                           	opt	pm
     4                           	psect	strings,global,class=STRING,delta=2
     5                           	psect	nvBANK0,global,class=BANK0,space=1,delta=1
     6                           	psect	cinit,global,class=CODE,merge=1,delta=2
     7                           	psect	bitbssBANK0,global,bit,class=BANK0,space=1,delta=1
     8                           	psect	bssBANK0,global,class=BANK0,space=1,delta=1
     9                           	psect	clrtext,global,class=CODE,delta=2
    10                           	psect	cstackCOMMON,global,class=COMMON,space=1,delta=1
    11                           	psect	cstackBANK0,global,class=BANK0,space=1,delta=1
    12                           	psect	maintext,global,class=CODE,split=1,delta=2
    13                           	psect	text5,local,class=CODE,merge=1,delta=2
    14                           	psect	text10,local,class=CODE,merge=1,delta=2
    15                           	psect	text11,local,class=CODE,merge=1,delta=2
    16                           	psect	text12,local,class=CODE,merge=1,delta=2
    17                           	psect	text13,local,class=CODE,merge=1,delta=2
    18                           	psect	text14,local,class=CODE,merge=1,delta=2
    19                           	psect	text15,local,class=CODE,merge=1,delta=2
    20                           	psect	text16,local,class=CODE,merge=1,delta=2
    21                           	psect	text17,local,class=CODE,merge=1,delta=2
    22                           	psect	text18,local,class=CODE,merge=1,delta=2
    23                           	psect	text19,local,class=CODE,merge=1,delta=2
    24                           	psect	text22,local,class=CODE,merge=1,delta=2
    25                           	psect	text25,local,class=CODE,merge=1,delta=2
    26                           	psect	intentry,global,class=CODE,delta=2
    27                           	psect	text27,local,class=CODE,merge=1,delta=2,group=1
    28                           	psect	text28,local,class=CODE,merge=1,delta=2,group=1
    29                           	psect	text29,local,class=CODE,merge=1,delta=2,group=1
    30                           	psect	text35,local,class=CODE,merge=1,delta=2,group=1
    31                           	psect	pa_nodes0,global,class=CODE,delta=2
    32                           	dabs	1,0x7E,2
    33  0000                     
    34                           ; Version 1.45
    35                           ; Generated 16/11/2017 GMT
    36                           ; 
    37                           ; Copyright Â© 2017, Microchip Technology Inc. and its subsidiaries ("Microchip")
    38                           ; All rights reserved.
    39                           ; 
    40                           ; This software is developed by Microchip Technology Inc. and its subsidiaries ("Microch
      +                          ip").
    41                           ; 
    42                           ; Redistribution and use in source and binary forms, with or without modification, are
    43                           ; permitted provided that the following conditions are met:
    44                           ; 
    45                           ;     1. Redistributions of source code must retain the above copyright notice, this lis
      +                          t of
    46                           ;        conditions and the following disclaimer.
    47                           ; 
    48                           ;     2. Redistributions in binary form must reproduce the above copyright notice, this 
      +                          list
    49                           ;        of conditions and the following disclaimer in the documentation and/or other
    50                           ;        materials provided with the distribution.
    51                           ; 
    52                           ;     3. Microchip's name may not be used to endorse or promote products derived from th
      +                          is
    53                           ;        software without specific prior written permission.
    54                           ; 
    55                           ; THIS SOFTWARE IS PROVIDED BY MICROCHIP "AS IS" AND ANY EXPRESS OR IMPLIED WARRANTIES,
    56                           ; INCLUDING, BUT NOT LIMITED TO, THE IMPLIED WARRANTIES OF MERCHANTABILITY AND FITNESS F
      +                          OR
    57                           ; PURPOSE ARE DISCLAIMED.  IN NO EVENT SHALL MICROCHIP BE LIABLE FOR ANY DIRECT, INDIREC
      +                          T,
    58                           ; INCIDENTAL, SPECIAL, EXEMPLARY, OR CONSEQUENTIAL DAMAGES (INCLUDING BUT NOT LIMITED TO
    59                           ; PROCUREMENT OF SUBSTITUTE GOODS OR SERVICES; LOSS OF USE, DATA OR PROFITS; OR BUSINESS
    60                           ; INTERRUPTION) HOWSOEVER CAUSED AND ON ANY THEORY OF LIABILITY, WHETHER IN CONTRACT, ST
      +                          RICT
    61                           ; LIABILITY, OR TORT (INCLUDING NEGLIGENCE OR OTHERWISE) ARISING IN ANY WAY OUT OF THE U
      +                          SE OF
    62                           ; THIS SOFTWARE, EVEN IF ADVISED OF THE POSSIBILITY OF SUCH DAMAGE.
    63                           ; 
    64                           ; 
    65                           ; Code-generator required, PIC16F887 Definitions
    66                           ; 
    67                           ; SFR Addresses
    68  0000                     
    69                           	psect	strings
    70  0800                     __pstrings:	
    71  0800                     stringtab:	
    72  0800                     __stringtab:	
    73  0800                     stringcode:	
    74                           ;	String table - string pointers are 1 byte each
    75                           
    76  0800                     stringdir:	
    77  0800  3008               	movlw	high stringdir
    78  0801  008A               	movwf	10
    79  0802  0804               	movf	4,w
    80  0803  0A84               	incf	4,f
    81  0804  0782               	addwf	2,f
    82  0805                     __stringbase:	
    83  0805  3400               	retlw	0
    84  0806                     __end_of__stringtab:	
    85  0806                     _DIGIT_MAP:	
    86  0806  343F               	retlw	63
    87  0807  3406               	retlw	6
    88  0808  345B               	retlw	91
    89  0809  344F               	retlw	79
    90  080A  3466               	retlw	102
    91  080B  346D               	retlw	109
    92  080C  347D               	retlw	125
    93  080D  3407               	retlw	7
    94  080E  347F               	retlw	127
    95  080F  346F               	retlw	111
    96  0810                     __end_of_DIGIT_MAP:	
    97  0810                     ___CMS_Table_KeyFalg:	
    98  0810  3401               	retlw	1
    99  0811  3402               	retlw	2
   100  0812  3404               	retlw	4
   101  0813  3408               	retlw	8
   102  0814  3410               	retlw	16
   103  0815  3420               	retlw	32
   104  0816  3440               	retlw	64
   105  0817  3480               	retlw	128
   106  0818                     __end_of___CMS_Table_KeyFalg:	
   107  0818                     _Table_KeyDown:	
   108  0818  3432               	retlw	50
   109  0819  3400               	retlw	0
   110  081A  3432               	retlw	50
   111  081B  3400               	retlw	0
   112  081C  3432               	retlw	50
   113  081D  3400               	retlw	0
   114  081E  3432               	retlw	50
   115  081F  3400               	retlw	0
   116  0820                     __end_of_Table_KeyDown:	
   117  0820                     ___CMS_CurStep_Table:	
   118  0820  3400               	retlw	0
   119  0821  3408               	retlw	8
   120  0822  3404               	retlw	4
   121  0823  340C               	retlw	12
   122  0824  3406               	retlw	6
   123  0825  340E               	retlw	14
   124  0826                     __end_of___CMS_CurStep_Table:	
   125  0826                     _StepTable_R:	
   126  0826  3420               	retlw	32
   127  0827  3440               	retlw	64
   128  0828  3480               	retlw	128
   129  0829  3480               	retlw	128
   130  082A                     __end_of_StepTable_R:	
   131  082A                     _StepTable_L:	
   132  082A  3480               	retlw	128
   133  082B  3480               	retlw	128
   134  082C  3440               	retlw	64
   135  082D  3420               	retlw	32
   136  082E                     __end_of_StepTable_L:	
   137  082E                     _Table_KeyChannel:	
   138  082E  340C               	retlw	12
   139  082F  340D               	retlw	13
   140  0830  340E               	retlw	14
   141  0831  340F               	retlw	15
   142  0832                     __end_of_Table_KeyChannel:	
   143  0832                     _Key_LDOSel:	
   144  0832  3404               	retlw	4
   145  0833                     __end_of_Key_LDOSel:	
   146  0833                     _LMDValue:	
   147  0833  3401               	retlw	1
   148  0834                     __end_of_LMDValue:	
   149  0834                     _CmBase:	
   150  0834  340A               	retlw	10
   151  0835                     __end_of_CmBase:	
   152  0835                     _VolValue:	
   153  0835  3419               	retlw	25
   154  0836                     __end_of_VolValue:	
   155  0836                     _KeyShakeCounter:	
   156  0836  3402               	retlw	2
   157  0837                     __end_of_KeyShakeCounter:	
   158                           
   159                           	psect	nvBANK0
   160  005F                     __pnvBANK0:	
   161  005F                     _Dis_SC1:	
   162  005F                     	ds	1
   163  001D                     _CCP2CON	set	29
   164  001B                     _CCPR2L	set	27
   165  0012                     _T2CON	set	18
   166  000B                     _INTCON	set	11
   167  0006                     _PORTB	set	6
   168  0005                     _PORTA	set	5
   169  0061                     _TMR2IF	set	97
   170  0036                     _RB6	set	54
   171  002B                     _RA3	set	43
   172  002C                     _RA4	set	44
   173  0092                     _PR2	set	146
   174  008F                     _OSCCON	set	143
   175  0086                     _TRISB	set	134
   176  0085                     _TRISA	set	133
   177  0081                     _OPTION_REG	set	129
   178  04AE                     _WPUB6	set	1198
   179  0461                     _TMR2IE	set	1121
   180  0436                     _TRISB6	set	1078
   181  042B                     _TRISA3	set	1067
   182  042C                     _TRISA4	set	1068
   183  01A0                     ___CMSNewRAM__	set	416
   184  01C0                     _KeyReference	set	448
   185  01A0                     _KeyOldValue	set	416
   186  01A0                     _KeySum	set	416
   187  01D0                     ___CMS_CurStep	set	464
   188  01C0                     _KeyBaseCnt	set	448
   189  01B0                     _KeyUpShake	set	432
   190  01A0                     _ITRIM_Ram	set	416
   191  01E0                     _KeyNosieC	set	480
   192  01C0                     _KeyHave	set	448
   193  01D6                     _TimeLimit	set	470
   194  01D4                     _KeyUnusual	set	468
   195  01D2                     _KeyMinTemp	set	466
   196  01D0                     _KeyMaxTemp	set	464
   197  01E4                     _KeyCounter	set	484
   198  01E3                     ___CMS_32M_CT	set	483
   199  01E2                     ___CMS_32M_Dat	set	482
   200  0185                     ___CMS_KEYSA	set	389
   201  019F                     ___CMS_RAMCTR	set	415
   202  019C                     ___CMS_KDMAXH	set	412
   203  019B                     ___CMS_KDMAXL	set	411
   204  019E                     ___CMS_KDARGH	set	414
   205  019D                     ___CMS_KDARGL	set	413
   206  019A                     ___CMS_KDMINH	set	410
   207  0199                     ___CMS_KDMINL	set	409
   208  0198                     ___CMS_KEYCON8	set	408
   209  0197                     ___CMS_KEYCON7	set	407
   210  0196                     ___CMS_KEYCON6	set	406
   211  0195                     ___CMS_KEYCON5	set	405
   212  0194                     ___CMS_KEYCON4	set	404
   213  0193                     ___CMS_KEYCON3	set	403
   214  0192                     ___CMS_KEYCON2	set	402
   215  0191                     ___CMS_KEYCON1	set	401
   216  0190                     ___CMS_KEYCON0	set	400
   217                           
   218                           	psect	cinit
   219  0015                     start_initialization:	
   220                           ; #config settings
   221                           
   222  0015                     __initialization:	
   223                           
   224                           ; Clear objects allocated to BITBANK0
   225  0015  1283               	bcf	3,5	;RP0=0, select bank0
   226  0016  1303               	bcf	3,6	;RP1=0, select bank0
   227  0017  3020               	movlw	low __pbssBANK0
   228  0018  01DD               	clrf	(__pbitbssBANK0/(0+8))& (0+127)
   229  0019  01DE               	clrf	((__pbitbssBANK0/(0+8)+1))& (0+127)
   230                           
   231                           ; Clear objects allocated to BANK0
   232  001A  1383               	bcf	3,7	;select IRP bank0
   233  001B  0084               	movwf	4
   234  001C  3045               	movlw	low (__pbssBANK0+37)
   235  001D  120A  158A  2640   	fcall	clear_ram0
   236  0020                     end_of_initialization:	
   237                           ;End of C runtime variable initialization code
   238                           
   239  0020                     __end_of__initialization:	
   240  0020  0183               	clrf	3
   241  0021  120A  158A  2EF2   	ljmp	_main	;jump to C main() function
   242                           
   243                           	psect	bitbssBANK0
   244  02E8                     __pbitbssBANK0:	
   245  02E8                     ___CMS_CheckTouchKey@SDfst:	
   246  02E8                     	ds	1
   247  02E9                     ___CMS_Key_UNNOL_Check@UnNolOver:	
   248  02E9                     	ds	1
   249  02EA                     ___CMS_CheckOnceResult@KeyDownF:	
   250  02EA                     	ds	1
   251  02EB                     _b_kerr:	
   252  02EB                     	ds	1
   253  02EC                     _CurAdjustSDfst:	
   254  02EC                     	ds	1
   255  02ED                     _CurCheckOver:	
   256  02ED                     	ds	1
   257  02EE                     _b_onceerr:	
   258  02EE                     	ds	1
   259  02EF                     _b_over2:	
   260  02EF                     	ds	1
   261  02F0                     _b_over1:	
   262  02F0                     	ds	1
   263  02F1                     _b_over0:	
   264  02F1                     	ds	1
   265  02F2                     _SwingState:	
   266  02F2                     	ds	1
   267  02F3                     _WorkMode:	
   268  02F3                     	ds	1
   269  02F4                     _SystemOn:	
   270  02F4                     	ds	1
   271                           
   272                           	psect	bssBANK0
   273  0020                     __pbssBANK0:	
   274  0020                     _disp_buffer:	
   275  0020                     	ds	5
   276  0025                     ___CMS_CheckValidTime@validtime:	
   277  0025                     	ds	2
   278  0027                     _StepCount:	
   279  0027                     	ds	2
   280  0029                     _i:	
   281  0029                     	ds	2
   282  002B                     Kscan@KeyOldFlag:	
   283  002B                     	ds	2
   284  002D                     _KeyFlag:	
   285  002D                     	ds	2
   286  002F                     main@minute_cnt:	
   287  002F                     	ds	2
   288  0031                     ___CMS_Key_UNNOL_Check@UnNolTime:	
   289  0031                     	ds	1
   290  0032                     ___CMS_Key_UNNOL_Check@UnNolSec:	
   291  0032                     	ds	1
   292  0033                     ___CMS_CurAdjust@CurAdjLmtTimec:	
   293  0033                     	ds	1
   294  0034                     _IntCurStepTemp:	
   295  0034                     	ds	1
   296  0035                     _RAMCTRBack:	
   297  0035                     	ds	1
   298  0036                     _KeyAdrCnt:	
   299  0036                     	ds	1
   300  0037                     _scan_idx:	
   301  0037                     	ds	1
   302  0038                     _PWM_Count_PTC:	
   303  0038                     	ds	1
   304  0039                     _PWM_Duty_PTC:	
   305  0039                     	ds	1
   306  003A                     _PWM_Count_Motor:	
   307  003A                     	ds	1
   308  003B                     _PWM_Duty_Motor:	
   309  003B                     	ds	1
   310  003C                     _Dir:	
   311  003C                     	ds	1
   312  003D                     TaskKey@lastKeyValue:	
   313  003D                     	ds	1
   314  003E                     _State:	
   315  003E                     	ds	1
   316  003F                     _keyValue:	
   317  003F                     	ds	1
   318  0040                     main@sec_cnt:	
   319  0040                     	ds	1
   320  0041                     _tcount:	
   321  0041                     	ds	1
   322  0042                     _FallDownState:	
   323  0042                     	ds	1
   324  0043                     _TimerVal:	
   325  0043                     	ds	1
   326  0044                     _Dis_SC0:	
   327  0044                     	ds	1
   328                           
   329                           	psect	clrtext
   330  0E40                     clear_ram0:	
   331                           ;	Called with FSR containing the base address, and
   332                           ;	W with the last address+1
   333                           
   334  0E40  0064               	clrwdt	;clear the watchdog before getting into this loop
   335  0E41                     clrloop0:	
   336  0E41  0180               	clrf	0	;clear RAM location pointed to by FSR
   337  0E42  0A84               	incf	4,f	;increment pointer
   338  0E43  0604               	xorwf	4,w	;XOR with final address
   339  0E44  1903               	btfsc	3,2	;have we reached the end yet?
   340  0E45  3400               	retlw	0	;all done for this memory range, return
   341  0E46  0604               	xorwf	4,w	;XOR again to restore value
   342  0E47  2E41               	goto	clrloop0	;do the next byte
   343                           
   344                           	psect	cstackCOMMON
   345  0070                     __pcstackCOMMON:	
   346  0070                     ?_Display:	
   347  0070                     ?_PWM_Ctr_Motor:	
   348                           ; 1 bytes @ 0x0
   349                           
   350  0070                     ??_PWM_Ctr_Motor:	
   351                           ; 1 bytes @ 0x0
   352                           
   353  0070                     ?_PWM_Ctr_PTC:	
   354                           ; 1 bytes @ 0x0
   355                           
   356  0070                     ??_PWM_Ctr_PTC:	
   357                           ; 1 bytes @ 0x0
   358                           
   359  0070                     ?___CMS_GetTouchKeyValue:	
   360                           ; 1 bytes @ 0x0
   361                           
   362  0070                     ??___CMS_GetTouchKeyValue:	
   363                           ; 1 bytes @ 0x0
   364                           
   365  0070                     ?___CMS_CheckTouchKey:	
   366                           ; 1 bytes @ 0x0
   367                           
   368  0070                     ?_InitKey:	
   369                           ; 1 bytes @ 0x0
   370                           
   371  0070                     ?_InitMotor:	
   372                           ; 1 bytes @ 0x0
   373                           
   374  0070                     ?_InitStepMotor:	
   375                           ; 1 bytes @ 0x0
   376                           
   377  0070                     ?_InitPTC:	
   378                           ; 1 bytes @ 0x0
   379                           
   380  0070                     ?_PTC_Init:	
   381                           ; 1 bytes @ 0x0
   382                           
   383  0070                     ?_InitFallDown:	
   384                           ; 1 bytes @ 0x0
   385                           
   386  0070                     ?_Display_Init:	
   387                           ; 1 bytes @ 0x0
   388                           
   389  0070                     ?_Display_UpdateData:	
   390                           ; 1 bytes @ 0x0
   391                           
   392  0070                     ?_System_Shutdown:	
   393                           ; 1 bytes @ 0x0
   394                           
   395  0070                     ?_Kscan:	
   396                           ; 1 bytes @ 0x0
   397                           
   398  0070                     ?_TaskKey:	
   399                           ; 1 bytes @ 0x0
   400                           
   401  0070                     ?_StepMotorControl:	
   402                           ; 1 bytes @ 0x0
   403                           
   404  0070                     ?_ReadFallDown:	
   405                           ; 1 bytes @ 0x0
   406                           
   407  0070                     ?_PTC_SetDuty:	
   408                           ; 1 bytes @ 0x0
   409                           
   410  0070                     ?_Display_Clear:	
   411                           ; 1 bytes @ 0x0
   412                           
   413  0070                     ?_ISR:	
   414                           ; 1 bytes @ 0x0
   415                           
   416  0070                     ?_InitTimer2:	
   417                           ; 1 bytes @ 0x0
   418                           
   419  0070                     ?_SetStep:	
   420                           ; 1 bytes @ 0x0
   421                           
   422  0070                     ?_SwitchDir:	
   423                           ; 1 bytes @ 0x0
   424                           
   425  0070                     ?_StepMotorRun:	
   426                           ; 1 bytes @ 0x0
   427                           
   428  0070                     ?_Display_Refresh:	
   429                           ; 1 bytes @ 0x0
   430                           
   431  0070                     ?___CMS_KeyIsIn:	
   432                           ; 1 bytes @ 0x0
   433                           
   434  0070                     ??___CMS_KeyIsIn:	
   435                           ; 1 bytes @ 0x0
   436                           
   437  0070                     ?___CMS_KeyOpen:	
   438                           ; 1 bytes @ 0x0
   439                           
   440  0070                     ?___CMS_KeyHaveDown:	
   441                           ; 1 bytes @ 0x0
   442                           
   443  0070                     ?___CMS_KeyClearOne:	
   444                           ; 1 bytes @ 0x0
   445                           
   446  0070                     ??___CMS_KeyClearOne:	
   447                           ; 1 bytes @ 0x0
   448                           
   449  0070                     ?___CMS_KeyStopClear:	
   450                           ; 1 bytes @ 0x0
   451                           
   452  0070                     ?___CMS_KeyModeSet:	
   453                           ; 1 bytes @ 0x0
   454                           
   455  0070                     ??___CMS_KeyModeSet:	
   456                           ; 1 bytes @ 0x0
   457                           
   458  0070                     ?___CMS_CheckOnceResult:	
   459                           ; 1 bytes @ 0x0
   460                           
   461  0070                     ?___CMS_CheckKeyOldValue:	
   462                           ; 1 bytes @ 0x0
   463                           
   464  0070                     ?___CMS_CheckValidTime:	
   465                           ; 1 bytes @ 0x0
   466                           
   467  0070                     ??___CMS_CheckValidTime:	
   468                           ; 1 bytes @ 0x0
   469                           
   470  0070                     ?___CMS_CurAdjMode:	
   471                           ; 1 bytes @ 0x0
   472                           
   473  0070                     ??___CMS_CurAdjMode:	
   474                           ; 1 bytes @ 0x0
   475                           
   476  0070                     ?___CMS_CurAdjust:	
   477                           ; 1 bytes @ 0x0
   478                           
   479  0070                     ?___CMS_Key_UNNOL_Check:	
   480                           ; 1 bytes @ 0x0
   481                           
   482  0070                     ?___CMS_KeyDatIIR:	
   483                           ; 1 bytes @ 0x0
   484                           
   485  0070                     ??___CMS_KeyDatIIR:	
   486                           ; 1 bytes @ 0x0
   487                           
   488  0070                     ?___CMS_NewRAMClr:	
   489                           ; 1 bytes @ 0x0
   490                           
   491  0070                     ??___CMS_NewRAMClr:	
   492                           ; 1 bytes @ 0x0
   493                           
   494  0070                     ?___GET_32M_FREDAT:	
   495                           ; 1 bytes @ 0x0
   496                           
   497  0070                     ??___GET_32M_FREDAT:	
   498                           ; 1 bytes @ 0x0
   499                           
   500  0070                     ?i1_SetPin:	
   501                           ; 1 bytes @ 0x0
   502                           
   503  0070                     ?_main:	
   504                           ; 1 bytes @ 0x0
   505                           
   506  0070                     ___CMS_KeyIsIn@i:	
   507                           ; 2 bytes @ 0x0
   508                           
   509  0070                     ___CMS_KeyOpen@flag:	
   510                           ; 1 bytes @ 0x0
   511                           
   512  0070                     ___CMS_KeyHaveDown@flag:	
   513                           ; 1 bytes @ 0x0
   514                           
   515  0070                     ___CMS_KeyModeSet@DLTempl:	
   516                           ; 1 bytes @ 0x0
   517                           
   518  0070                     ___CMS_CurAdjMode@CurStepTemp:	
   519                           ; 1 bytes @ 0x0
   520                           
   521  0070                     ___CMS_NewRAMClr@i:	
   522                           ; 1 bytes @ 0x0
   523                           
   524  0070                     i1SetPin@mode:	
   525                           ; 1 bytes @ 0x0
   526                           
   527                           
   528                           ; 1 bytes @ 0x0
   529  0070                     	ds	1
   530  0071                     ??___CMS_KeyOpen:	
   531  0071                     ??___CMS_KeyHaveDown:	
   532                           ; 1 bytes @ 0x1
   533                           
   534  0071                     ??___CMS_CurAdjust:	
   535                           ; 1 bytes @ 0x1
   536                           
   537  0071                     ??___CMS_Key_UNNOL_Check:	
   538                           ; 1 bytes @ 0x1
   539                           
   540  0071                     ??i1_SetPin:	
   541                           ; 1 bytes @ 0x1
   542                           
   543  0071                     ___CMS_KeyIsIn@cnt:	
   544                           ; 1 bytes @ 0x1
   545                           
   546  0071                     ___CMS_KeyOpen@cnt:	
   547                           ; 1 bytes @ 0x1
   548                           
   549  0071                     ___CMS_KeyHaveDown@cnt:	
   550                           ; 1 bytes @ 0x1
   551                           
   552  0071                     i1SetPin@pin_idx:	
   553                           ; 1 bytes @ 0x1
   554                           
   555                           
   556                           ; 1 bytes @ 0x1
   557  0071                     	ds	1
   558  0072                     ??_Display_Refresh:	
   559  0072                     ??___CMS_CheckKeyOldValue:	
   560                           ; 1 bytes @ 0x2
   561                           
   562  0072                     ___CMS_KeyClearOne@cnt:	
   563                           ; 1 bytes @ 0x2
   564                           
   565  0072                     ___CMS_CurAdjust@cnt:	
   566                           ; 1 bytes @ 0x2
   567                           
   568                           
   569                           ; 1 bytes @ 0x2
   570  0072                     	ds	1
   571  0073                     ??___CMS_KeyStopClear:	
   572  0073                     ??___CMS_CheckOnceResult:	
   573                           ; 1 bytes @ 0x3
   574                           
   575  0073                     Display_Refresh@sinks:	
   576                           ; 1 bytes @ 0x3
   577                           
   578  0073                     ___CMS_KeyStopClear@i:	
   579                           ; 1 bytes @ 0x3
   580                           
   581  0073                     ___CMS_Key_UNNOL_Check@UnNolFlag:	
   582                           ; 1 bytes @ 0x3
   583                           
   584  0073                     ___CMS_CurAdjust@KeySumTemp:	
   585                           ; 1 bytes @ 0x3
   586                           
   587                           
   588                           ; 2 bytes @ 0x3
   589  0073                     	ds	1
   590  0074                     Display_Refresh@current_src:	
   591  0074                     ___CMS_Key_UNNOL_Check@cnt:	
   592                           ; 1 bytes @ 0x4
   593                           
   594                           
   595                           ; 1 bytes @ 0x4
   596  0074                     	ds	1
   597  0075                     Display_Refresh@i:	
   598                           
   599                           ; 1 bytes @ 0x5
   600  0075                     	ds	1
   601  0076                     ??_Display:	
   602                           
   603                           ; 1 bytes @ 0x6
   604  0076                     	ds	8
   605  007E                     ??___CMS_CheckTouchKey:	
   606                           
   607                           	psect	cstackBANK0
   608  0045                     __pcstackBANK0:	
   609                           ; 1 bytes @ 0xE
   610                           
   611  0045                     ___CMS_CheckOnceResult@KeyDown:	
   612  0045                     ___CMS_CheckKeyOldValue@KeyBaseLV:	
   613                           ; 2 bytes @ 0x0
   614                           
   615  0045                     ___CMS_KeyDatIIR@TKDatTemp:	
   616                           ; 2 bytes @ 0x0
   617                           
   618                           
   619                           ; 2 bytes @ 0x0
   620  0045                     	ds	2
   621  0047                     ___CMS_CheckOnceResult@KeyValue:	
   622  0047                     ___CMS_CheckKeyOldValue@KeyOneTemp:	
   623                           ; 2 bytes @ 0x2
   624                           
   625  0047                     ___CMS_KeyDatIIR@TKOldTemp:	
   626                           ; 2 bytes @ 0x2
   627                           
   628                           
   629                           ; 2 bytes @ 0x2
   630  0047                     	ds	2
   631  0049                     ___CMS_CheckOnceResult@KHaveC:	
   632  0049                     ___CMS_CheckKeyOldValue@VolValueOne:	
   633                           ; 1 bytes @ 0x4
   634                           
   635  0049                     ___CMS_KeyDatIIR@cnt:	
   636                           ; 1 bytes @ 0x4
   637                           
   638                           
   639                           ; 1 bytes @ 0x4
   640  0049                     	ds	1
   641  004A                     ___CMS_CheckOnceResult@KHaveTemp:	
   642  004A                     ___CMS_CheckKeyOldValue@KeyBase:	
   643                           ; 1 bytes @ 0x5
   644                           
   645                           
   646                           ; 2 bytes @ 0x5
   647  004A                     	ds	1
   648  004B                     ___CMS_CheckOnceResult@KeyBase:	
   649                           
   650                           ; 2 bytes @ 0x6
   651  004B                     	ds	1
   652  004C                     ___CMS_CheckKeyOldValue@KeyTemp:	
   653                           
   654                           ; 2 bytes @ 0x7
   655  004C                     	ds	1
   656  004D                     ___CMS_CheckOnceResult@templ:	
   657                           
   658                           ; 1 bytes @ 0x8
   659  004D                     	ds	1
   660  004E                     ___CMS_CheckOnceResult@flag:	
   661  004E                     ___CMS_CheckKeyOldValue@KeyOldTemp:	
   662                           ; 1 bytes @ 0x9
   663                           
   664                           
   665                           ; 2 bytes @ 0x9
   666  004E                     	ds	1
   667  004F                     ___CMS_CheckOnceResult@cnt:	
   668                           
   669                           ; 1 bytes @ 0xA
   670  004F                     	ds	1
   671  0050                     ___CMS_CheckKeyOldValue@cnt:	
   672                           
   673                           ; 1 bytes @ 0xB
   674  0050                     	ds	1
   675  0051                     ??_ISR:	
   676                           
   677                           ; 1 bytes @ 0xC
   678  0051                     	ds	4
   679  0055                     ??_InitKey:	
   680  0055                     ??_InitMotor:	
   681                           ; 1 bytes @ 0x10
   682                           
   683  0055                     ??_InitStepMotor:	
   684                           ; 1 bytes @ 0x10
   685                           
   686  0055                     ??_InitPTC:	
   687                           ; 1 bytes @ 0x10
   688                           
   689  0055                     ??_PTC_Init:	
   690                           ; 1 bytes @ 0x10
   691                           
   692  0055                     ??_InitFallDown:	
   693                           ; 1 bytes @ 0x10
   694                           
   695  0055                     ??_Kscan:	
   696                           ; 1 bytes @ 0x10
   697                           
   698  0055                     ??_ReadFallDown:	
   699                           ; 1 bytes @ 0x10
   700                           
   701  0055                     ??_PTC_SetDuty:	
   702                           ; 1 bytes @ 0x10
   703                           
   704  0055                     ??_Display_Clear:	
   705                           ; 1 bytes @ 0x10
   706                           
   707  0055                     ??_InitTimer2:	
   708                           ; 1 bytes @ 0x10
   709                           
   710  0055                     ??_SetStep:	
   711                           ; 1 bytes @ 0x10
   712                           
   713  0055                     ??_SwitchDir:	
   714                           ; 1 bytes @ 0x10
   715                           
   716  0055                     ?_SetPin:	
   717                           ; 1 bytes @ 0x10
   718                           
   719  0055                     ?_Display_SetSegment:	
   720                           ; 1 bytes @ 0x10
   721                           
   722  0055                     SetStep@step:	
   723                           ; 1 bytes @ 0x10
   724                           
   725  0055                     SetPin@mode:	
   726                           ; 1 bytes @ 0x10
   727                           
   728  0055                     Display_Clear@i:	
   729                           ; 1 bytes @ 0x10
   730                           
   731  0055                     Display_SetSegment@state:	
   732                           ; 1 bytes @ 0x10
   733                           
   734  0055                     Kscan@KeyOnOutput:	
   735                           ; 1 bytes @ 0x10
   736                           
   737                           
   738                           ; 2 bytes @ 0x10
   739  0055                     	ds	1
   740  0056                     ?_StepMotor:	
   741  0056                     ??_SetPin:	
   742                           ; 1 bytes @ 0x11
   743                           
   744  0056                     ??_Display_SetSegment:	
   745                           ; 1 bytes @ 0x11
   746                           
   747  0056                     StepMotor@Dir:	
   748                           ; 1 bytes @ 0x11
   749                           
   750  0056                     SetPin@pin_idx:	
   751                           ; 1 bytes @ 0x11
   752                           
   753                           
   754                           ; 1 bytes @ 0x11
   755  0056                     	ds	1
   756  0057                     ??_Display_Init:	
   757  0057                     ??_StepMotor:	
   758                           ; 1 bytes @ 0x12
   759                           
   760  0057                     StepMotor@stepIndex:	
   761                           ; 1 bytes @ 0x12
   762                           
   763  0057                     Display_SetSegment@seg_code:	
   764                           ; 1 bytes @ 0x12
   765                           
   766  0057                     PTC_SetDuty@dutyRaw:	
   767                           ; 1 bytes @ 0x12
   768                           
   769                           
   770                           ; 2 bytes @ 0x12
   771  0057                     	ds	1
   772  0058                     ??_StepMotorControl:	
   773  0058                     ??_StepMotorRun:	
   774                           ; 1 bytes @ 0x13
   775                           
   776  0058                     Display_SetSegment@src:	
   777                           ; 1 bytes @ 0x13
   778                           
   779                           
   780                           ; 1 bytes @ 0x13
   781  0058                     	ds	1
   782  0059                     PTC_SetDuty@dutyPercent:	
   783  0059                     Display_SetSegment@sink:	
   784                           ; 1 bytes @ 0x14
   785                           
   786                           
   787                           ; 1 bytes @ 0x14
   788  0059                     	ds	1
   789  005A                     ?_Display_SetAux:	
   790  005A                     ?_Display_SetDigit:	
   791                           ; 1 bytes @ 0x15
   792                           
   793  005A                     Display_SetDigit@num:	
   794                           ; 1 bytes @ 0x15
   795                           
   796  005A                     Display_SetAux@state:	
   797                           ; 1 bytes @ 0x15
   798                           
   799                           
   800                           ; 1 bytes @ 0x15
   801  005A                     	ds	1
   802  005B                     ??_Display_SetAux:	
   803  005B                     ??_Display_SetDigit:	
   804                           ; 1 bytes @ 0x16
   805                           
   806  005B                     Display_SetDigit@digit_pos:	
   807                           ; 1 bytes @ 0x16
   808                           
   809  005B                     Display_SetAux@aux_id:	
   810                           ; 1 bytes @ 0x16
   811                           
   812                           
   813                           ; 1 bytes @ 0x16
   814  005B                     	ds	1
   815  005C                     ??_System_Shutdown:	
   816  005C                     ??_TaskKey:	
   817                           ; 1 bytes @ 0x17
   818                           
   819  005C                     Display_SetDigit@map:	
   820                           ; 1 bytes @ 0x17
   821                           
   822                           
   823                           ; 1 bytes @ 0x17
   824  005C                     	ds	1
   825  005D                     ??_Display_UpdateData:	
   826  005D                     ??_main:	
   827                           ; 1 bytes @ 0x18
   828                           
   829                           
   830                           	psect	maintext
   831  0EF2                     __pmaintext:	
   832                           ; 1 bytes @ 0x18
   833 ;;
   834 ;;Main: autosize = 0, tempsize = 0, incstack = 0, save=0
   835 ;;
   836 ;; *************** function _main *****************
   837 ;; Defined at:
   838 ;;		line 36 in file "D:\Homework\laptop\Homework\Ç¶ČëĘ˝\warmFan_finish\main.c"
   839 ;; Parameters:    Size  Location     Type
   840 ;;		None
   841 ;; Auto vars:     Size  Location     Type
   842 ;;		None
   843 ;; Return value:  Size  Location     Type
   844 ;;                  2  793[None  ] int 
   845 ;; Registers used:
   846 ;;		wreg, fsr0l, fsr0h, status,2, status,0, pclath, cstack
   847 ;; Tracked objects:
   848 ;;		On entry : B00/0
   849 ;;		On exit  : 300/0
   850 ;;		Unchanged: 0/0
   851 ;; Data sizes:     COMMON   BANK0   BANK1   BANK2
   852 ;;      Params:         0       0       0       0
   853 ;;      Locals:         0       0       0       0
   854 ;;      Temps:          0       0       0       0
   855 ;;      Totals:         0       0       0       0
   856 ;;Total ram usage:        0 bytes
   857 ;; Hardware stack levels required when called:    9
   858 ;; This function calls:
   859 ;;		_Display_Init
   860 ;;		_Display_UpdateData
   861 ;;		_InitFallDown
   862 ;;		_InitKey
   863 ;;		_InitMotor
   864 ;;		_InitPTC
   865 ;;		_InitStepMotor
   866 ;;		_InitTimer2
   867 ;;		_Kscan
   868 ;;		_PTC_Init
   869 ;;		_ReadFallDown
   870 ;;		_StepMotorControl
   871 ;;		_System_Shutdown
   872 ;;		_TaskKey
   873 ;; This function is called by:
   874 ;;		Startup code after reset
   875 ;; This function uses a non-reentrant model
   876 ;;
   877                           
   878                           
   879                           ;psect for function _main
   880  0EF2                     _main:	
   881                           
   882                           ;incstack = 0
   883 ;; hardware stack exceeded
   884                           ; Regs used in _main: [wreg-fsr0h+status,2+status,0+pclath+cstack]
   885  0EF2  0000               	nop	;# 
   886  0EF3  0064               	clrwdt	;# 
   887                           
   888                           ;main.c: 40: OSCCON = 0x71;
   889  0EF4  3071               	movlw	113
   890  0EF5  1683               	bsf	3,5	;RP0=1, select bank1
   891  0EF6  1303               	bcf	3,6	;RP1=0, select bank1
   892  0EF7  008F               	movwf	15	;volatile
   893                           
   894                           ;main.c: 41: INTCON = 0xC0;
   895  0EF8  30C0               	movlw	192
   896  0EF9  008B               	movwf	11	;volatile
   897                           
   898                           ;main.c: 43: InitTimer2();
   899  0EFA  120A  158A  2648  120A  158A  	fcall	_InitTimer2
   900                           
   901                           ;main.c: 46: InitKey();
   902  0EFF  120A  158A  2622  120A  158A  	fcall	_InitKey
   903                           
   904                           ;main.c: 47: InitMotor();
   905  0F04  120A  158A  2626  120A  158A  	fcall	_InitMotor
   906                           
   907                           ;main.c: 48: InitStepMotor();
   908  0F09  120A  158A  2638  120A  158A  	fcall	_InitStepMotor
   909                           
   910                           ;main.c: 49: InitPTC();
   911  0F0E  120A  158A  262B  120A  158A  	fcall	_InitPTC
   912                           
   913                           ;main.c: 50: PTC_Init();
   914  0F13  120A  118A  27F2  120A  158A  	fcall	_PTC_Init
   915                           
   916                           ;main.c: 51: InitFallDown();
   917  0F18  120A  158A  261E  120A  158A  	fcall	_InitFallDown
   918                           
   919                           ;main.c: 53: Dis_SC0 = 0;
   920  0F1D  1283               	bcf	3,5	;RP0=0, select bank0
   921  0F1E  01C4               	clrf	_Dis_SC0
   922                           
   923                           ;main.c: 54: Dis_SC1 = 1;
   924  0F1F  01DF               	clrf	_Dis_SC1
   925  0F20  0ADF               	incf	_Dis_SC1,f
   926                           
   927                           ;main.c: 58: Display_Init();
   928  0F21  120A  158A  2776  120A  158A  	fcall	_Display_Init
   929                           
   930                           ;main.c: 62: SystemOn = 0;
   931  0F26  125E               	bcf	_SystemOn/(0+8),_SystemOn& (0+7)
   932  0F27                     l794:	
   933                           ;main.c: 64: while(1) {
   934                           
   935  0F27  0064               	clrwdt	;# 
   936                           
   937                           ;main.c: 66: if (tcount >= 40) {
   938  0F28  3028               	movlw	40
   939  0F29  1283               	bcf	3,5	;RP0=0, select bank0
   940  0F2A  1303               	bcf	3,6	;RP1=0, select bank0
   941  0F2B  0241               	subwf	_tcount,w
   942  0F2C  1C03               	skipc
   943  0F2D  2F27               	goto	l794
   944                           
   945                           ;main.c: 67: tcount = 0;
   946  0F2E  01C1               	clrf	_tcount
   947                           
   948                           ;main.c: 68: Display_UpdateData();
   949  0F2F  120A  118A  2424  120A  158A  	fcall	_Display_UpdateData
   950  0F34  30FA               	movlw	250
   951                           
   952                           ;main.c: 71: static unsigned char sec_cnt = 0;
   953                           ;main.c: 72: sec_cnt++;
   954  0F35  0AC0               	incf	main@sec_cnt,f
   955                           
   956                           ;main.c: 73: if (sec_cnt >= 250) {
   957  0F36  0240               	subwf	main@sec_cnt,w
   958  0F37  1C03               	skipc
   959  0F38  2F57               	goto	l8758
   960                           
   961                           ;main.c: 74: sec_cnt = 0;
   962  0F39  01C0               	clrf	main@sec_cnt
   963                           
   964                           ;main.c: 77: if (SystemOn && TimerVal > 0) {
   965  0F3A  1E5E               	btfss	_SystemOn/(0+8),_SystemOn& (0+7)
   966  0F3B  2F57               	goto	l8758
   967  0F3C  0843               	movf	_TimerVal,w
   968  0F3D  1903               	btfsc	3,2
   969  0F3E  2F57               	goto	l8758
   970                           
   971                           ;main.c: 84: static unsigned int minute_cnt = 0;
   972                           ;main.c: 85: minute_cnt++;
   973  0F3F  0AAF               	incf	main@minute_cnt,f
   974  0F40  1903               	skipnz
   975  0F41  0AB0               	incf	main@minute_cnt+1,f
   976                           
   977                           ;main.c: 86: if (minute_cnt >= 3600) {
   978  0F42  300E               	movlw	14
   979  0F43  0230               	subwf	main@minute_cnt+1,w
   980  0F44  3010               	movlw	16
   981  0F45  1903               	skipnz
   982  0F46  022F               	subwf	main@minute_cnt,w
   983  0F47  1C03               	skipc
   984  0F48  2F57               	goto	l8758
   985                           
   986                           ;main.c: 87: minute_cnt = 0;
   987  0F49  01AF               	clrf	main@minute_cnt
   988  0F4A  01B0               	clrf	main@minute_cnt+1
   989                           
   990                           ;main.c: 88: TimerVal--;
   991  0F4B  03C3               	decf	_TimerVal,f
   992                           
   993                           ;main.c: 89: if (TimerVal == 0) {
   994  0F4C  0843               	movf	_TimerVal,w
   995  0F4D  1D03               	btfss	3,2
   996  0F4E  2F55               	goto	l8756
   997                           
   998                           ;main.c: 91: System_Shutdown();
   999  0F4F  120A  118A  242E  120A  158A  	fcall	_System_Shutdown
  1000                           
  1001                           ;main.c: 92: } else {
  1002  0F54  2F57               	goto	l8758
  1003  0F55                     l8756:	
  1004                           
  1005                           ;main.c: 94: Dis_SC0 = TimerVal;
  1006  0F55  0843               	movf	_TimerVal,w
  1007  0F56  00C4               	movwf	_Dis_SC0
  1008  0F57                     l8758:	
  1009                           
  1010                           ;main.c: 95: }
  1011                           ;main.c: 96: }
  1012                           ;main.c: 97: }
  1013                           ;main.c: 98: }
  1014                           ;main.c: 100: Kscan();
  1015  0F57  120A  158A  2685  120A  158A  	fcall	_Kscan
  1016                           
  1017                           ;main.c: 101: TaskKey();
  1018  0F5C  120A  118A  2455  120A  158A  	fcall	_TaskKey
  1019                           
  1020                           ;main.c: 105: StepMotorControl();
  1021  0F61  120A  118A  279B  120A  158A  	fcall	_StepMotorControl
  1022                           
  1023                           ;main.c: 107: ReadFallDown();
  1024  0F66  120A  158A  2631  120A  158A  	fcall	_ReadFallDown
  1025                           
  1026                           ;main.c: 109: if (SystemOn && FallDownState) {
  1027  0F6B  1E5E               	btfss	_SystemOn/(0+8),_SystemOn& (0+7)
  1028  0F6C  2F27               	goto	l794
  1029  0F6D  0842               	movf	_FallDownState,w
  1030  0F6E  1903               	btfsc	3,2
  1031  0F6F  2F27               	goto	l794
  1032                           
  1033                           ;main.c: 110: System_Shutdown();
  1034  0F70  120A  118A  242E  120A  158A  	fcall	_System_Shutdown
  1035  0F75  2F27               	goto	l794
  1036  0F76                     __end_of_main:	
  1037                           
  1038                           	psect	text5
  1039  079B                     __ptext5:	
  1040 ;; *************** function _StepMotorControl *****************
  1041 ;; Defined at:
  1042 ;;		line 77 in file "D:\Homework\laptop\Homework\Ç¶ČëĘ˝\warmFan_finish\StepMotor.c"
  1043 ;; Parameters:    Size  Location     Type
  1044 ;;		None
  1045 ;; Auto vars:     Size  Location     Type
  1046 ;;		None
  1047 ;; Return value:  Size  Location     Type
  1048 ;;                  1    wreg      void 
  1049 ;; Registers used:
  1050 ;;		wreg, fsr0l, fsr0h, status,2, status,0, pclath, cstack
  1051 ;; Tracked objects:
  1052 ;;		On entry : 300/0
  1053 ;;		On exit  : 300/0
  1054 ;;		Unchanged: 0/0
  1055 ;; Data sizes:     COMMON   BANK0   BANK1   BANK2
  1056 ;;      Params:         0       0       0       0
  1057 ;;      Locals:         0       0       0       0
  1058 ;;      Temps:          0       0       0       0
  1059 ;;      Totals:         0       0       0       0
  1060 ;;Total ram usage:        0 bytes
  1061 ;; Hardware stack levels used:    1
  1062 ;; Hardware stack levels required when called:    8
  1063 ;; This function calls:
  1064 ;;		_StepMotorRun
  1065 ;; This function is called by:
  1066 ;;		_main
  1067 ;; This function uses a non-reentrant model
  1068 ;;
  1069                           
  1070                           
  1071                           ;psect for function _StepMotorControl
  1072  079B                     _StepMotorControl:	
  1073                           
  1074                           ;StepMotor.c: 78: if(State == 1) {
  1075                           
  1076                           ;incstack = 0
  1077 ;; hardware stack exceeded
  1078                           ; Regs used in _StepMotorControl: [wreg-fsr0h+status,2+status,0+pclath+cstack]
  1079  079B  0B3E               	decfsz	_State,w
  1080  079C  2F9E               	goto	l8680
  1081                           
  1082                           ;StepMotor.c: 79: StepMotorRun();
  1083  079D  2FA2               	ljmp	l7932
  1084  079E                     l8680:	
  1085                           ;StepMotor.c: 80: }
  1086                           
  1087                           
  1088                           ;StepMotor.c: 81: else {
  1089                           ;StepMotor.c: 82: PORTA &= ~((1<<5)|(1<<6)|(1<<7));
  1090  079E  301F               	movlw	31
  1091  079F  0585               	andwf	5,f	;volatile
  1092                           
  1093                           ;StepMotor.c: 83: PORTB &= ~(1<<7);
  1094  07A0  1386               	bcf	6,7	;volatile
  1095  07A1  0008               	return
  1096  07A2                     __end_of_StepMotorControl:	
  1097  07A2                     __ptext6:	
  1098 ;; *************** function _StepMotorRun *****************
  1099 ;; Defined at:
  1100 ;;		line 70 in file "D:\Homework\laptop\Homework\Ç¶ČëĘ˝\warmFan_finish\StepMotor.c"
  1101 ;; Parameters:    Size  Location     Type
  1102 ;;		None
  1103 ;; Auto vars:     Size  Location     Type
  1104 ;;		None
  1105 ;; Return value:  Size  Location     Type
  1106 ;;                  1    wreg      void 
  1107 ;; Registers used:
  1108 ;;		wreg, fsr0l, fsr0h, status,2, status,0, pclath, cstack
  1109 ;; Tracked objects:
  1110 ;;		On entry : 300/0
  1111 ;;		On exit  : 300/0
  1112 ;;		Unchanged: 0/0
  1113 ;; Data sizes:     COMMON   BANK0   BANK1   BANK2
  1114 ;;      Params:         0       0       0       0
  1115 ;;      Locals:         0       0       0       0
  1116 ;;      Temps:          0       0       0       0
  1117 ;;      Totals:         0       0       0       0
  1118 ;;Total ram usage:        0 bytes
  1119 ;; Hardware stack levels used:    1
  1120 ;; Hardware stack levels required when called:    7
  1121 ;; This function calls:
  1122 ;;		_StepMotor
  1123 ;;		_SwitchDir
  1124 ;; This function is called by:
  1125 ;;		_StepMotorControl
  1126 ;; This function uses a non-reentrant model
  1127 ;;
  1128                           
  1129                           
  1130                           ;psect for function _StepMotorRun
  1131  07A2                     _StepMotorRun:	
  1132  07A2                     l7932:	
  1133                           ;incstack = 0
  1134 ;; hardware stack exceeded
  1135                           ; Regs used in _StepMotorRun: [wreg-fsr0h+status,2+status,0+pclath+cstack]
  1136                           
  1137                           
  1138                           ;StepMotor.c: 71: StepMotor(i++, Dir);
  1139  07A2  083C               	movf	_Dir,w
  1140  07A3  00D6               	movwf	StepMotor@Dir
  1141  07A4  0829               	movf	_i,w
  1142  07A5  27B5  120A  118A   	fcall	_StepMotor
  1143  07A8  0AA9               	incf	_i,f
  1144  07A9  1903               	skipnz
  1145  07AA  0AAA               	incf	_i+1,f
  1146                           
  1147                           ;StepMotor.c: 72: if(i >= 4) i = 0;
  1148  07AB  3000               	movlw	0
  1149  07AC  022A               	subwf	_i+1,w
  1150  07AD  3004               	movlw	4
  1151  07AE  1903               	skipnz
  1152  07AF  0229               	subwf	_i,w
  1153  07B0  1C03               	skipc
  1154  07B1  2FB4               	goto	l7940
  1155  07B2  01A9               	clrf	_i
  1156  07B3  01AA               	clrf	_i+1
  1157  07B4                     l7940:	
  1158                           
  1159                           ;StepMotor.c: 73: SwitchDir();
  1160  07B4  2FDE               	ljmp	l7766
  1161  07B5                     __end_of_StepMotorRun:	
  1162  07B5                     __ptext8:	
  1163 ;; *************** function _StepMotor *****************
  1164 ;; Defined at:
  1165 ;;		line 49 in file "D:\Homework\laptop\Homework\Ç¶ČëĘ˝\warmFan_finish\StepMotor.c"
  1166 ;; Parameters:    Size  Location     Type
  1167 ;;  stepIndex       1    wreg     unsigned char 
  1168 ;;  Dir             1   17[BANK0 ] unsigned char 
  1169 ;; Auto vars:     Size  Location     Type
  1170 ;;  stepIndex       1   18[BANK0 ] unsigned char 
  1171 ;; Return value:  Size  Location     Type
  1172 ;;                  1    wreg      void 
  1173 ;; Registers used:
  1174 ;;		wreg, fsr0l, fsr0h, status,2, status,0, pclath, cstack
  1175 ;; Tracked objects:
  1176 ;;		On entry : 300/0
  1177 ;;		On exit  : 300/0
  1178 ;;		Unchanged: 0/0
  1179 ;; Data sizes:     COMMON   BANK0   BANK1   BANK2
  1180 ;;      Params:         0       1       0       0
  1181 ;;      Locals:         0       1       0       0
  1182 ;;      Temps:          0       0       0       0
  1183 ;;      Totals:         0       2       0       0
  1184 ;;Total ram usage:        2 bytes
  1185 ;; Hardware stack levels used:    1
  1186 ;; Hardware stack levels required when called:    6
  1187 ;; This function calls:
  1188 ;;		_SetStep
  1189 ;; This function is called by:
  1190 ;;		_StepMotorRun
  1191 ;; This function uses a non-reentrant model
  1192 ;;
  1193                           
  1194                           
  1195                           ;psect for function _StepMotor
  1196  07B5                     _StepMotor:	
  1197                           
  1198                           ;incstack = 0
  1199 ;; hardware stack exceeded
  1200                           ; Regs used in _StepMotor: [wreg-fsr0h+status,2+status,0+pclath+cstack]
  1201                           ;StepMotor@stepIndex stored from wreg
  1202  07B5  00D7               	movwf	StepMotor@stepIndex
  1203                           
  1204                           ;StepMotor.c: 56: break;
  1205                           
  1206                           ;StepMotor.c: 50: switch (Dir) {
  1207  07B6  0856               	movf	StepMotor@Dir,w
  1208                           
  1209                           ; Switch size 1, requested type "space"
  1210                           ; Number of cases is 2, Range of values is 0 to 1
  1211                           ; switch strategies available:
  1212                           ; Name         Instructions Cycles
  1213                           ; simple_byte            7     4 (average)
  1214                           ; direct_byte           14     8 (fixed)
  1215                           ; jumptable            260     6 (fixed)
  1216                           ;	Chosen strategy is simple_byte
  1217  07B7  3A00               	xorlw	0	; case 0
  1218  07B8  1903               	skipnz
  1219  07B9  2FBE               	goto	l7758
  1220  07BA  3A01               	xorlw	1	; case 1
  1221  07BB  1903               	skipnz
  1222  07BC  2FC8               	goto	l7760
  1223  07BD  2FD2               	goto	l3031
  1224  07BE                     l7758:	
  1225                           
  1226                           ;StepMotor.c: 52: SetStep(StepTable_L[stepIndex % 4]);
  1227  07BE  0857               	movf	StepMotor@stepIndex,w
  1228  07BF  3903               	andlw	3
  1229  07C0  3E25               	addlw	low ((_StepTable_L-__stringbase)| (0+32768))
  1230  07C1  0084               	movwf	4
  1231  07C2  120A  158A  2000  120A  118A  	fcall	stringdir
  1232  07C7  2FD3               	ljmp	_SetStep
  1233  07C8                     l7760:	
  1234                           ;StepMotor.c: 53: break;
  1235                           
  1236                           
  1237                           ;StepMotor.c: 55: SetStep(StepTable_R[stepIndex % 4]);
  1238  07C8  0857               	movf	StepMotor@stepIndex,w
  1239  07C9  3903               	andlw	3
  1240  07CA  3E21               	addlw	low ((_StepTable_R-__stringbase)| (0+32768))
  1241  07CB  0084               	movwf	4
  1242  07CC  120A  158A  2000  120A  118A  	fcall	stringdir
  1243  07D1  2FD3               	ljmp	_SetStep
  1244  07D2                     l3031:	
  1245  07D2  0008               	return
  1246  07D3                     __end_of_StepMotor:	
  1247  07D3                     __ptext9:	
  1248 ;; *************** function _SetStep *****************
  1249 ;; Defined at:
  1250 ;;		line 39 in file "D:\Homework\laptop\Homework\Ç¶ČëĘ˝\warmFan_finish\StepMotor.c"
  1251 ;; Parameters:    Size  Location     Type
  1252 ;;  step            1    wreg     unsigned char 
  1253 ;; Auto vars:     Size  Location     Type
  1254 ;;  step            1   16[BANK0 ] unsigned char 
  1255 ;; Return value:  Size  Location     Type
  1256 ;;                  1    wreg      void 
  1257 ;; Registers used:
  1258 ;;		wreg, status,2, status,0
  1259 ;; Tracked objects:
  1260 ;;		On entry : 300/0
  1261 ;;		On exit  : 300/0
  1262 ;;		Unchanged: 0/0
  1263 ;; Data sizes:     COMMON   BANK0   BANK1   BANK2
  1264 ;;      Params:         0       0       0       0
  1265 ;;      Locals:         0       1       0       0
  1266 ;;      Temps:          0       0       0       0
  1267 ;;      Totals:         0       1       0       0
  1268 ;;Total ram usage:        1 bytes
  1269 ;; Hardware stack levels used:    1
  1270 ;; Hardware stack levels required when called:    5
  1271 ;; This function calls:
  1272 ;;		Nothing
  1273 ;; This function is called by:
  1274 ;;		_StepMotor
  1275 ;; This function uses a non-reentrant model
  1276 ;;
  1277                           
  1278                           
  1279                           ;psect for function _SetStep
  1280  07D3                     _SetStep:	
  1281                           
  1282                           ;incstack = 0
  1283 ;; hardware stack exceeded
  1284                           ; Regs used in _SetStep: [wreg+status,2+status,0]
  1285                           ;SetStep@step stored from wreg
  1286  07D3  00D5               	movwf	SetStep@step
  1287                           
  1288                           ;StepMotor.c: 41: PORTA &= ~((1<<5)|(1<<6)|(1<<7));
  1289  07D4  301F               	movlw	31
  1290  07D5  0585               	andwf	5,f	;volatile
  1291                           
  1292                           ;StepMotor.c: 42: PORTB &= ~(1<<7);
  1293  07D6  1386               	bcf	6,7	;volatile
  1294                           
  1295                           ;StepMotor.c: 44: PORTA |= (step & ((1<<7)|(1<<6)|(1<<5)));
  1296  07D7  0855               	movf	SetStep@step,w
  1297  07D8  39E0               	andlw	224
  1298  07D9  0485               	iorwf	5,f	;volatile
  1299                           
  1300                           ;StepMotor.c: 45: PORTB |= (step & (1<<7));
  1301  07DA  0855               	movf	SetStep@step,w
  1302  07DB  3980               	andlw	128
  1303  07DC  0486               	iorwf	6,f	;volatile
  1304  07DD  0008               	return
  1305  07DE                     __end_of_SetStep:	
  1306  07DE                     __ptext7:	
  1307 ;; *************** function _SwitchDir *****************
  1308 ;; Defined at:
  1309 ;;		line 61 in file "D:\Homework\laptop\Homework\Ç¶ČëĘ˝\warmFan_finish\StepMotor.c"
  1310 ;; Parameters:    Size  Location     Type
  1311 ;;		None
  1312 ;; Auto vars:     Size  Location     Type
  1313 ;;		None
  1314 ;; Return value:  Size  Location     Type
  1315 ;;                  1    wreg      void 
  1316 ;; Registers used:
  1317 ;;		wreg, status,2, status,0
  1318 ;; Tracked objects:
  1319 ;;		On entry : 300/0
  1320 ;;		On exit  : 300/0
  1321 ;;		Unchanged: 0/0
  1322 ;; Data sizes:     COMMON   BANK0   BANK1   BANK2
  1323 ;;      Params:         0       0       0       0
  1324 ;;      Locals:         0       0       0       0
  1325 ;;      Temps:          0       0       0       0
  1326 ;;      Totals:         0       0       0       0
  1327 ;;Total ram usage:        0 bytes
  1328 ;; Hardware stack levels used:    1
  1329 ;; Hardware stack levels required when called:    5
  1330 ;; This function calls:
  1331 ;;		Nothing
  1332 ;; This function is called by:
  1333 ;;		_StepMotorRun
  1334 ;; This function uses a non-reentrant model
  1335 ;;
  1336                           
  1337                           
  1338                           ;psect for function _SwitchDir
  1339  07DE                     _SwitchDir:	
  1340  07DE                     l7766:	
  1341                           ;incstack = 0
  1342                           ; Regs used in _SwitchDir: [wreg+status,2+status,0]
  1343                           
  1344                           
  1345                           ;StepMotor.c: 62: StepCount++;
  1346  07DE  0AA7               	incf	_StepCount,f
  1347  07DF  1903               	skipnz
  1348  07E0  0AA8               	incf	_StepCount+1,f
  1349                           
  1350                           ;StepMotor.c: 63: if(StepCount >= stepMax) {
  1351  07E1  3008               	movlw	8
  1352  07E2  0228               	subwf	_StepCount+1,w
  1353  07E3  3000               	movlw	0
  1354  07E4  1903               	skipnz
  1355  07E5  0227               	subwf	_StepCount,w
  1356  07E6  1C03               	skipc
  1357  07E7  0008               	return
  1358                           
  1359                           ;StepMotor.c: 64: StepCount = 0;
  1360  07E8  01A7               	clrf	_StepCount
  1361  07E9  01A8               	clrf	_StepCount+1
  1362                           
  1363                           ;StepMotor.c: 65: Dir = !Dir;
  1364  07EA  083C               	movf	_Dir,w
  1365  07EB  1D03               	btfss	3,2
  1366  07EC  2FEF               	goto	u1420
  1367  07ED  3001               	movlw	1
  1368  07EE  2FF0               	goto	u1430
  1369  07EF                     u1420:	
  1370  07EF  3000               	movlw	0
  1371  07F0                     u1430:	
  1372  07F0  00BC               	movwf	_Dir
  1373  07F1  0008               	return
  1374  07F2                     __end_of_SwitchDir:	
  1375                           
  1376                           	psect	text10
  1377  0E31                     __ptext10:	
  1378 ;; *************** function _ReadFallDown *****************
  1379 ;; Defined at:
  1380 ;;		line 15 in file "D:\Homework\laptop\Homework\Ç¶ČëĘ˝\warmFan_finish\FallDown.c"
  1381 ;; Parameters:    Size  Location     Type
  1382 ;;		None
  1383 ;; Auto vars:     Size  Location     Type
  1384 ;;		None
  1385 ;; Return value:  Size  Location     Type
  1386 ;;                  1    wreg      void 
  1387 ;; Registers used:
  1388 ;;		status,2
  1389 ;; Tracked objects:
  1390 ;;		On entry : 300/0
  1391 ;;		On exit  : 300/0
  1392 ;;		Unchanged: 0/0
  1393 ;; Data sizes:     COMMON   BANK0   BANK1   BANK2
  1394 ;;      Params:         0       0       0       0
  1395 ;;      Locals:         0       0       0       0
  1396 ;;      Temps:          0       0       0       0
  1397 ;;      Totals:         0       0       0       0
  1398 ;;Total ram usage:        0 bytes
  1399 ;; Hardware stack levels used:    1
  1400 ;; Hardware stack levels required when called:    5
  1401 ;; This function calls:
  1402 ;;		Nothing
  1403 ;; This function is called by:
  1404 ;;		_main
  1405 ;; This function uses a non-reentrant model
  1406 ;;
  1407                           
  1408                           
  1409                           ;psect for function _ReadFallDown
  1410  0E31                     _ReadFallDown:	
  1411                           
  1412                           ;FallDown.c: 16: if(RB6 == 0) {
  1413                           
  1414                           ;incstack = 0
  1415                           ; Regs used in _ReadFallDown: [status,2]
  1416  0E31  1B06               	btfsc	6,6	;volatile
  1417  0E32  2E36               	goto	l8688
  1418                           
  1419                           ;FallDown.c: 17: FallDownState = 1;
  1420  0E33  01C2               	clrf	_FallDownState
  1421  0E34  0AC2               	incf	_FallDownState,f
  1422                           
  1423                           ;FallDown.c: 18: } else {
  1424  0E35  0008               	return
  1425  0E36                     l8688:	
  1426                           
  1427                           ;FallDown.c: 19: FallDownState = 0;
  1428  0E36  01C2               	clrf	_FallDownState
  1429  0E37  0008               	return
  1430  0E38                     __end_of_ReadFallDown:	
  1431                           
  1432                           	psect	text11
  1433  07F2                     __ptext11:	
  1434 ;; *************** function _PTC_Init *****************
  1435 ;; Defined at:
  1436 ;;		line 16 in file "D:\Homework\laptop\Homework\Ç¶ČëĘ˝\warmFan_finish\ptc_driver.c"
  1437 ;; Parameters:    Size  Location     Type
  1438 ;;		None
  1439 ;; Auto vars:     Size  Location     Type
  1440 ;;		None
  1441 ;; Return value:  Size  Location     Type
  1442 ;;                  1    wreg      void 
  1443 ;; Registers used:
  1444 ;;		wreg, status,2
  1445 ;; Tracked objects:
  1446 ;;		On entry : 300/0
  1447 ;;		On exit  : 300/100
  1448 ;;		Unchanged: 0/0
  1449 ;; Data sizes:     COMMON   BANK0   BANK1   BANK2
  1450 ;;      Params:         0       0       0       0
  1451 ;;      Locals:         0       0       0       0
  1452 ;;      Temps:          0       0       0       0
  1453 ;;      Totals:         0       0       0       0
  1454 ;;Total ram usage:        0 bytes
  1455 ;; Hardware stack levels used:    1
  1456 ;; Hardware stack levels required when called:    5
  1457 ;; This function calls:
  1458 ;;		Nothing
  1459 ;; This function is called by:
  1460 ;;		_main
  1461 ;; This function uses a non-reentrant model
  1462 ;;
  1463                           
  1464                           
  1465                           ;psect for function _PTC_Init
  1466  07F2                     _PTC_Init:	
  1467                           
  1468                           ;ptc_driver.c: 18: TRISA &= ~(1 << 4);
  1469                           
  1470                           ;incstack = 0
  1471                           ; Regs used in _PTC_Init: [wreg+status,2]
  1472  07F2  1683               	bsf	3,5	;RP0=1, select bank1
  1473  07F3  1205               	bcf	5,4	;volatile
  1474                           
  1475                           ;ptc_driver.c: 22: PR2 = 99;
  1476  07F4  3063               	movlw	99
  1477  07F5  0092               	movwf	18	;volatile
  1478                           
  1479                           ;ptc_driver.c: 29: T2CON = 0x05;
  1480  07F6  3005               	movlw	5
  1481  07F7  1283               	bcf	3,5	;RP0=0, select bank0
  1482  07F8  0092               	movwf	18	;volatile
  1483                           
  1484                           ;ptc_driver.c: 35: CCP2CON = 0x0C;
  1485  07F9  300C               	movlw	12
  1486  07FA  009D               	movwf	29	;volatile
  1487                           
  1488                           ;ptc_driver.c: 38: CCPR2L = 0;
  1489  07FB  019B               	clrf	27	;volatile
  1490                           
  1491                           ;ptc_driver.c: 41: TMR2IE = 1;
  1492  07FC  1683               	bsf	3,5	;RP0=1, select bank1
  1493  07FD  148C               	bsf	12,1	;volatile
  1494  07FE  0008               	return
  1495  07FF                     __end_of_PTC_Init:	
  1496                           
  1497                           	psect	text12
  1498  0E85                     __ptext12:	
  1499 ;; *************** function _Kscan *****************
  1500 ;; Defined at:
  1501 ;;		line 16 in file "D:\Homework\laptop\Homework\Ç¶ČëĘ˝\warmFan_finish\Key.c"
  1502 ;; Parameters:    Size  Location     Type
  1503 ;;		None
  1504 ;; Auto vars:     Size  Location     Type
  1505 ;;  KeyOnOutput     2   16[BANK0 ] unsigned int 
  1506 ;; Return value:  Size  Location     Type
  1507 ;;                  1    wreg      void 
  1508 ;; Registers used:
  1509 ;;		wreg, status,2, status,0
  1510 ;; Tracked objects:
  1511 ;;		On entry : 300/0
  1512 ;;		On exit  : 300/0
  1513 ;;		Unchanged: 0/0
  1514 ;; Data sizes:     COMMON   BANK0   BANK1   BANK2
  1515 ;;      Params:         0       0       0       0
  1516 ;;      Locals:         0       2       0       0
  1517 ;;      Temps:          0       0       0       0
  1518 ;;      Totals:         0       2       0       0
  1519 ;;Total ram usage:        2 bytes
  1520 ;; Hardware stack levels used:    1
  1521 ;; Hardware stack levels required when called:    5
  1522 ;; This function calls:
  1523 ;;		Nothing
  1524 ;; This function is called by:
  1525 ;;		_main
  1526 ;; This function uses a non-reentrant model
  1527 ;;
  1528                           
  1529                           
  1530                           ;psect for function _Kscan
  1531  0E85                     _Kscan:	
  1532                           
  1533                           ;Key.c: 18: static unsigned int KeyOldFlag = 0;
  1534                           ;Key.c: 19: unsigned int KeyOnOutput = (unsigned int)((KeyFlag[1]<<8) | KeyFlag[0]);
  1535                           
  1536                           ;incstack = 0
  1537                           ; Regs used in _Kscan: [wreg+status,2+status,0]
  1538  0E85  082E               	movf	_KeyFlag+1,w	;volatile
  1539  0E86  00D6               	movwf	Kscan@KeyOnOutput+1
  1540  0E87  082D               	movf	_KeyFlag,w	;volatile
  1541  0E88  00D5               	movwf	Kscan@KeyOnOutput
  1542                           
  1543                           ;Key.c: 20: if(KeyOnOutput)
  1544  0E89  0456               	iorwf	Kscan@KeyOnOutput+1,w
  1545  0E8A  1903               	btfsc	3,2
  1546  0E8B  2EAC               	goto	l8598
  1547                           
  1548                           ;Key.c: 21: {
  1549                           ;Key.c: 22: if(KeyOnOutput != KeyOldFlag)
  1550  0E8C  082C               	movf	Kscan@KeyOldFlag+1,w
  1551  0E8D  0656               	xorwf	Kscan@KeyOnOutput+1,w
  1552  0E8E  1D03               	skipz
  1553  0E8F  2E92               	goto	u2505
  1554  0E90  082B               	movf	Kscan@KeyOldFlag,w
  1555  0E91  0655               	xorwf	Kscan@KeyOnOutput,w
  1556  0E92                     u2505:	
  1557  0E92  1903               	skipnz
  1558  0E93  0008               	return
  1559                           
  1560                           ;Key.c: 23: {
  1561                           ;Key.c: 24: KeyOldFlag = KeyOnOutput;
  1562  0E94  0856               	movf	Kscan@KeyOnOutput+1,w
  1563  0E95  00AC               	movwf	Kscan@KeyOldFlag+1
  1564  0E96  0855               	movf	Kscan@KeyOnOutput,w
  1565  0E97  00AB               	movwf	Kscan@KeyOldFlag
  1566                           
  1567                           ;Key.c: 25: if(0x1 & KeyOnOutput){keyValue = 1;}
  1568  0E98  1C55               	btfss	Kscan@KeyOnOutput,0
  1569  0E99  2E9D               	goto	l1556
  1570  0E9A  01BF               	clrf	_keyValue
  1571  0E9B  0ABF               	incf	_keyValue,f
  1572  0E9C  0008               	return
  1573  0E9D                     l1556:	
  1574                           
  1575                           ;Key.c: 26: else if(0x2 & KeyOnOutput){keyValue = 2;}
  1576  0E9D  1CD5               	btfss	Kscan@KeyOnOutput,1
  1577  0E9E  2EA2               	goto	l1558
  1578  0E9F  3002               	movlw	2
  1579  0EA0  00BF               	movwf	_keyValue
  1580  0EA1  0008               	return
  1581  0EA2                     l1558:	
  1582                           
  1583                           ;Key.c: 27: else if(0x4 & KeyOnOutput){keyValue = 3;}
  1584  0EA2  1D55               	btfss	Kscan@KeyOnOutput,2
  1585  0EA3  2EA7               	goto	l1560
  1586  0EA4  3003               	movlw	3
  1587  0EA5  00BF               	movwf	_keyValue
  1588  0EA6  0008               	return
  1589  0EA7                     l1560:	
  1590                           
  1591                           ;Key.c: 28: else if(0x8 & KeyOnOutput){keyValue = 4;}
  1592  0EA7  1DD5               	btfss	Kscan@KeyOnOutput,3
  1593  0EA8  0008               	return
  1594  0EA9  3004               	movlw	4
  1595  0EAA  00BF               	movwf	_keyValue
  1596  0EAB  0008               	return
  1597  0EAC                     l8598:	
  1598                           
  1599                           ;Key.c: 31: else
  1600                           ;Key.c: 32: {
  1601                           ;Key.c: 33: KeyOldFlag = 0;
  1602  0EAC  01AB               	clrf	Kscan@KeyOldFlag
  1603  0EAD  01AC               	clrf	Kscan@KeyOldFlag+1
  1604                           
  1605                           ;Key.c: 34: keyValue = 0;
  1606  0EAE  01BF               	clrf	_keyValue
  1607  0EAF  0008               	return
  1608  0EB0                     __end_of_Kscan:	
  1609                           
  1610                           	psect	text13
  1611  0E48                     __ptext13:	
  1612 ;; *************** function _InitTimer2 *****************
  1613 ;; Defined at:
  1614 ;;		line 29 in file "D:\Homework\laptop\Homework\Ç¶ČëĘ˝\warmFan_finish\main.c"
  1615 ;; Parameters:    Size  Location     Type
  1616 ;;		None
  1617 ;; Auto vars:     Size  Location     Type
  1618 ;;		None
  1619 ;; Return value:  Size  Location     Type
  1620 ;;                  1    wreg      void 
  1621 ;; Registers used:
  1622 ;;		wreg
  1623 ;; Tracked objects:
  1624 ;;		On entry : 300/100
  1625 ;;		On exit  : 300/0
  1626 ;;		Unchanged: 0/0
  1627 ;; Data sizes:     COMMON   BANK0   BANK1   BANK2
  1628 ;;      Params:         0       0       0       0
  1629 ;;      Locals:         0       0       0       0
  1630 ;;      Temps:          0       0       0       0
  1631 ;;      Totals:         0       0       0       0
  1632 ;;Total ram usage:        0 bytes
  1633 ;; Hardware stack levels used:    1
  1634 ;; Hardware stack levels required when called:    5
  1635 ;; This function calls:
  1636 ;;		Nothing
  1637 ;; This function is called by:
  1638 ;;		_main
  1639 ;; This function uses a non-reentrant model
  1640 ;;
  1641                           
  1642                           
  1643                           ;psect for function _InitTimer2
  1644  0E48                     _InitTimer2:	
  1645                           
  1646                           ;main.c: 30: PR2 = 124;
  1647                           
  1648                           ;incstack = 0
  1649                           ; Regs used in _InitTimer2: [wreg]
  1650  0E48  307C               	movlw	124
  1651  0E49  0092               	movwf	18	;volatile
  1652                           
  1653                           ;main.c: 31: TMR2IF = 0;
  1654  0E4A  1283               	bcf	3,5	;RP0=0, select bank0
  1655  0E4B  108C               	bcf	12,1	;volatile
  1656                           
  1657                           ;main.c: 32: TMR2IE = 1;
  1658  0E4C  1683               	bsf	3,5	;RP0=1, select bank1
  1659  0E4D  148C               	bsf	12,1	;volatile
  1660                           
  1661                           ;main.c: 33: T2CON = 0x05;
  1662  0E4E  3005               	movlw	5
  1663  0E4F  1283               	bcf	3,5	;RP0=0, select bank0
  1664  0E50  0092               	movwf	18	;volatile
  1665  0E51  0008               	return
  1666  0E52                     __end_of_InitTimer2:	
  1667                           
  1668                           	psect	text14
  1669  0E38                     __ptext14:	
  1670 ;; *************** function _InitStepMotor *****************
  1671 ;; Defined at:
  1672 ;;		line 29 in file "D:\Homework\laptop\Homework\Ç¶ČëĘ˝\warmFan_finish\StepMotor.c"
  1673 ;; Parameters:    Size  Location     Type
  1674 ;;		None
  1675 ;; Auto vars:     Size  Location     Type
  1676 ;;		None
  1677 ;; Return value:  Size  Location     Type
  1678 ;;                  1    wreg      void 
  1679 ;; Registers used:
  1680 ;;		wreg, status,2, status,0
  1681 ;; Tracked objects:
  1682 ;;		On entry : 300/0
  1683 ;;		On exit  : 300/0
  1684 ;;		Unchanged: 0/0
  1685 ;; Data sizes:     COMMON   BANK0   BANK1   BANK2
  1686 ;;      Params:         0       0       0       0
  1687 ;;      Locals:         0       0       0       0
  1688 ;;      Temps:          0       0       0       0
  1689 ;;      Totals:         0       0       0       0
  1690 ;;Total ram usage:        0 bytes
  1691 ;; Hardware stack levels used:    1
  1692 ;; Hardware stack levels required when called:    5
  1693 ;; This function calls:
  1694 ;;		Nothing
  1695 ;; This function is called by:
  1696 ;;		_main
  1697 ;; This function uses a non-reentrant model
  1698 ;;
  1699                           
  1700                           
  1701                           ;psect for function _InitStepMotor
  1702  0E38                     _InitStepMotor:	
  1703                           
  1704                           ;StepMotor.c: 31: TRISA &= ~((1<<5)|(1<<6)|(1<<7));
  1705                           
  1706                           ;incstack = 0
  1707                           ; Regs used in _InitStepMotor: [wreg+status,2+status,0]
  1708  0E38  301F               	movlw	31
  1709  0E39  1683               	bsf	3,5	;RP0=1, select bank1
  1710  0E3A  0585               	andwf	5,f	;volatile
  1711                           
  1712                           ;StepMotor.c: 32: TRISB &= ~(1<<7);
  1713  0E3B  1386               	bcf	6,7	;volatile
  1714                           
  1715                           ;StepMotor.c: 34: PORTA &= ~((1<<5)|(1<<6)|(1<<7));
  1716  0E3C  1283               	bcf	3,5	;RP0=0, select bank0
  1717  0E3D  0585               	andwf	5,f	;volatile
  1718                           
  1719                           ;StepMotor.c: 35: PORTB &= ~(1<<7);
  1720  0E3E  1386               	bcf	6,7	;volatile
  1721  0E3F  0008               	return
  1722  0E40                     __end_of_InitStepMotor:	
  1723                           
  1724                           	psect	text15
  1725  0E2B                     __ptext15:	
  1726 ;; *************** function _InitPTC *****************
  1727 ;; Defined at:
  1728 ;;		line 16 in file "D:\Homework\laptop\Homework\Ç¶ČëĘ˝\warmFan_finish\PWM.c"
  1729 ;; Parameters:    Size  Location     Type
  1730 ;;		None
  1731 ;; Auto vars:     Size  Location     Type
  1732 ;;		None
  1733 ;; Return value:  Size  Location     Type
  1734 ;;                  1    wreg      void 
  1735 ;; Registers used:
  1736 ;;		status,2
  1737 ;; Tracked objects:
  1738 ;;		On entry : 300/0
  1739 ;;		On exit  : 300/0
  1740 ;;		Unchanged: 0/0
  1741 ;; Data sizes:     COMMON   BANK0   BANK1   BANK2
  1742 ;;      Params:         0       0       0       0
  1743 ;;      Locals:         0       0       0       0
  1744 ;;      Temps:          0       0       0       0
  1745 ;;      Totals:         0       0       0       0
  1746 ;;Total ram usage:        0 bytes
  1747 ;; Hardware stack levels used:    1
  1748 ;; Hardware stack levels required when called:    5
  1749 ;; This function calls:
  1750 ;;		Nothing
  1751 ;; This function is called by:
  1752 ;;		_main
  1753 ;; This function uses a non-reentrant model
  1754 ;;
  1755                           
  1756                           
  1757                           ;psect for function _InitPTC
  1758  0E2B                     _InitPTC:	
  1759                           
  1760                           ;PWM.c: 19: TRISA4 = 0;
  1761                           
  1762                           ;incstack = 0
  1763                           ; Regs used in _InitPTC: [status,2]
  1764  0E2B  1683               	bsf	3,5	;RP0=1, select bank1
  1765  0E2C  1205               	bcf	5,4	;volatile
  1766                           
  1767                           ;PWM.c: 20: RA4 = 0;
  1768  0E2D  1283               	bcf	3,5	;RP0=0, select bank0
  1769  0E2E  1205               	bcf	5,4	;volatile
  1770                           
  1771                           ;PWM.c: 21: PWM_Duty_PTC = 0;
  1772  0E2F  01B9               	clrf	_PWM_Duty_PTC
  1773  0E30  0008               	return
  1774  0E31                     __end_of_InitPTC:	
  1775                           
  1776                           	psect	text16
  1777  0E26                     __ptext16:	
  1778 ;; *************** function _InitMotor *****************
  1779 ;; Defined at:
  1780 ;;		line 8 in file "D:\Homework\laptop\Homework\Ç¶ČëĘ˝\warmFan_finish\PWM.c"
  1781 ;; Parameters:    Size  Location     Type
  1782 ;;		None
  1783 ;; Auto vars:     Size  Location     Type
  1784 ;;		None
  1785 ;; Return value:  Size  Location     Type
  1786 ;;                  1    wreg      void 
  1787 ;; Registers used:
  1788 ;;		status,2
  1789 ;; Tracked objects:
  1790 ;;		On entry : 300/100
  1791 ;;		On exit  : 300/0
  1792 ;;		Unchanged: 0/0
  1793 ;; Data sizes:     COMMON   BANK0   BANK1   BANK2
  1794 ;;      Params:         0       0       0       0
  1795 ;;      Locals:         0       0       0       0
  1796 ;;      Temps:          0       0       0       0
  1797 ;;      Totals:         0       0       0       0
  1798 ;;Total ram usage:        0 bytes
  1799 ;; Hardware stack levels used:    1
  1800 ;; Hardware stack levels required when called:    5
  1801 ;; This function calls:
  1802 ;;		Nothing
  1803 ;; This function is called by:
  1804 ;;		_main
  1805 ;; This function uses a non-reentrant model
  1806 ;;
  1807                           
  1808                           
  1809                           ;psect for function _InitMotor
  1810  0E26                     _InitMotor:	
  1811                           
  1812                           ;PWM.c: 11: TRISA3 = 0;
  1813                           
  1814                           ;incstack = 0
  1815                           ; Regs used in _InitMotor: [status,2]
  1816  0E26  1185               	bcf	5,3	;volatile
  1817                           
  1818                           ;PWM.c: 12: RA3 = 0;
  1819  0E27  1283               	bcf	3,5	;RP0=0, select bank0
  1820  0E28  1185               	bcf	5,3	;volatile
  1821                           
  1822                           ;PWM.c: 13: PWM_Duty_Motor = 0;
  1823  0E29  01BB               	clrf	_PWM_Duty_Motor
  1824  0E2A  0008               	return
  1825  0E2B                     __end_of_InitMotor:	
  1826                           
  1827                           	psect	text17
  1828  0E22                     __ptext17:	
  1829 ;; *************** function _InitKey *****************
  1830 ;; Defined at:
  1831 ;;		line 9 in file "D:\Homework\laptop\Homework\Ç¶ČëĘ˝\warmFan_finish\Key.c"
  1832 ;; Parameters:    Size  Location     Type
  1833 ;;		None
  1834 ;; Auto vars:     Size  Location     Type
  1835 ;;		None
  1836 ;; Return value:  Size  Location     Type
  1837 ;;                  1    wreg      void 
  1838 ;; Registers used:
  1839 ;;		wreg, status,2, status,0
  1840 ;; Tracked objects:
  1841 ;;		On entry : 300/0
  1842 ;;		On exit  : 300/100
  1843 ;;		Unchanged: 0/0
  1844 ;; Data sizes:     COMMON   BANK0   BANK1   BANK2
  1845 ;;      Params:         0       0       0       0
  1846 ;;      Locals:         0       0       0       0
  1847 ;;      Temps:          0       0       0       0
  1848 ;;      Totals:         0       0       0       0
  1849 ;;Total ram usage:        0 bytes
  1850 ;; Hardware stack levels used:    1
  1851 ;; Hardware stack levels required when called:    5
  1852 ;; This function calls:
  1853 ;;		Nothing
  1854 ;; This function is called by:
  1855 ;;		_main
  1856 ;; This function uses a non-reentrant model
  1857 ;;
  1858                           
  1859                           
  1860                           ;psect for function _InitKey
  1861  0E22                     _InitKey:	
  1862                           
  1863                           ;Key.c: 10: TRISB |= 0B00001111;
  1864                           
  1865                           ;incstack = 0
  1866                           ; Regs used in _InitKey: [wreg+status,2+status,0]
  1867  0E22  300F               	movlw	15
  1868  0E23  1683               	bsf	3,5	;RP0=1, select bank1
  1869  0E24  0486               	iorwf	6,f	;volatile
  1870  0E25  0008               	return
  1871  0E26                     __end_of_InitKey:	
  1872                           
  1873                           	psect	text18
  1874  0E1E                     __ptext18:	
  1875 ;; *************** function _InitFallDown *****************
  1876 ;; Defined at:
  1877 ;;		line 7 in file "D:\Homework\laptop\Homework\Ç¶ČëĘ˝\warmFan_finish\FallDown.c"
  1878 ;; Parameters:    Size  Location     Type
  1879 ;;		None
  1880 ;; Auto vars:     Size  Location     Type
  1881 ;;		None
  1882 ;; Return value:  Size  Location     Type
  1883 ;;                  1    wreg      void 
  1884 ;; Registers used:
  1885 ;;		None
  1886 ;; Tracked objects:
  1887 ;;		On entry : 300/100
  1888 ;;		On exit  : 300/100
  1889 ;;		Unchanged: 0/0
  1890 ;; Data sizes:     COMMON   BANK0   BANK1   BANK2
  1891 ;;      Params:         0       0       0       0
  1892 ;;      Locals:         0       0       0       0
  1893 ;;      Temps:          0       0       0       0
  1894 ;;      Totals:         0       0       0       0
  1895 ;;Total ram usage:        0 bytes
  1896 ;; Hardware stack levels used:    1
  1897 ;; Hardware stack levels required when called:    5
  1898 ;; This function calls:
  1899 ;;		Nothing
  1900 ;; This function is called by:
  1901 ;;		_main
  1902 ;; This function uses a non-reentrant model
  1903 ;;
  1904                           
  1905                           
  1906                           ;psect for function _InitFallDown
  1907  0E1E                     _InitFallDown:	
  1908                           
  1909                           ;FallDown.c: 8: OPTION_REG &= 0B01111111;
  1910                           
  1911                           ;incstack = 0
  1912                           ; Regs used in _InitFallDown: []
  1913  0E1E  1381               	bcf	1,7	;volatile
  1914                           
  1915                           ;FallDown.c: 9: WPUB6 = 1;
  1916  0E1F  1715               	bsf	21,6	;volatile
  1917                           
  1918                           ;FallDown.c: 10: TRISB6 = 1;
  1919  0E20  1706               	bsf	6,6	;volatile
  1920  0E21  0008               	return
  1921  0E22                     __end_of_InitFallDown:	
  1922                           
  1923                           	psect	text19
  1924  0424                     __ptext19:	
  1925 ;; *************** function _Display_UpdateData *****************
  1926 ;; Defined at:
  1927 ;;		line 160 in file "D:\Homework\laptop\Homework\Ç¶ČëĘ˝\warmFan_finish\Display.c"
  1928 ;; Parameters:    Size  Location     Type
  1929 ;;		None
  1930 ;; Auto vars:     Size  Location     Type
  1931 ;;		None
  1932 ;; Return value:  Size  Location     Type
  1933 ;;                  1    wreg      void 
  1934 ;; Registers used:
  1935 ;;		wreg, fsr0l, fsr0h, status,2, status,0, pclath, cstack
  1936 ;; Tracked objects:
  1937 ;;		On entry : 300/0
  1938 ;;		On exit  : 300/0
  1939 ;;		Unchanged: 0/0
  1940 ;; Data sizes:     COMMON   BANK0   BANK1   BANK2
  1941 ;;      Params:         0       0       0       0
  1942 ;;      Locals:         0       0       0       0
  1943 ;;      Temps:          0       0       0       0
  1944 ;;      Totals:         0       0       0       0
  1945 ;;Total ram usage:        0 bytes
  1946 ;; Hardware stack levels used:    1
  1947 ;; Hardware stack levels required when called:    7
  1948 ;; This function calls:
  1949 ;;		_Display_SetDigit
  1950 ;; This function is called by:
  1951 ;;		_main
  1952 ;; This function uses a non-reentrant model
  1953 ;;
  1954                           
  1955                           
  1956                           ;psect for function _Display_UpdateData
  1957  0424                     _Display_UpdateData:	
  1958                           
  1959                           ;Display.c: 161: Display_SetDigit(1, Dis_SC0);
  1960                           
  1961                           ;incstack = 0
  1962                           ; Regs used in _Display_UpdateData: [wreg-fsr0h+status,2+status,0+pclath+cstack]
  1963  0424  0844               	movf	_Dis_SC0,w
  1964  0425  00DA               	movwf	Display_SetDigit@num
  1965  0426  3001               	movlw	1
  1966  0427  2533  120A  118A   	fcall	_Display_SetDigit
  1967                           
  1968                           ;Display.c: 162: Display_SetDigit(2, Dis_SC1);
  1969  042A  085F               	movf	_Dis_SC1,w
  1970  042B  00DA               	movwf	Display_SetDigit@num
  1971  042C  3002               	movlw	2
  1972  042D  2D33               	ljmp	_Display_SetDigit
  1973  042E                     __end_of_Display_UpdateData:	
  1974  042E                     __ptext2:	
  1975 ;; *************** function _System_Shutdown *****************
  1976 ;; Defined at:
  1977 ;;		line 15 in file "D:\Homework\laptop\Homework\Ç¶ČëĘ˝\warmFan_finish\Task.c"
  1978 ;; Parameters:    Size  Location     Type
  1979 ;;		None
  1980 ;; Auto vars:     Size  Location     Type
  1981 ;;		None
  1982 ;; Return value:  Size  Location     Type
  1983 ;;                  1    wreg      void 
  1984 ;; Registers used:
  1985 ;;		wreg, fsr0l, fsr0h, status,2, status,0, pclath, cstack
  1986 ;; Tracked objects:
  1987 ;;		On entry : 300/0
  1988 ;;		On exit  : 300/0
  1989 ;;		Unchanged: 0/0
  1990 ;; Data sizes:     COMMON   BANK0   BANK1   BANK2
  1991 ;;      Params:         0       0       0       0
  1992 ;;      Locals:         0       0       0       0
  1993 ;;      Temps:          0       0       0       0
  1994 ;;      Totals:         0       0       0       0
  1995 ;;Total ram usage:        0 bytes
  1996 ;; Hardware stack levels used:    1
  1997 ;; Hardware stack levels required when called:    7
  1998 ;; This function calls:
  1999 ;;		_Display_SetAux
  2000 ;;		_PTC_SetDuty
  2001 ;; This function is called by:
  2002 ;;		_main
  2003 ;;		_TaskKey
  2004 ;; This function uses a non-reentrant model
  2005 ;;
  2006                           
  2007                           
  2008                           ;psect for function _System_Shutdown
  2009  042E                     _System_Shutdown:	
  2010  042E  3001               	movlw	1
  2011                           
  2012                           ;Task.c: 16: SystemOn = 0;
  2013                           
  2014                           ;incstack = 0
  2015 ;; hardware stack exceeded
  2016                           ; Regs used in _System_Shutdown: [wreg-fsr0h+status,2+status,0+pclath+cstack]
  2017  042F  125E               	bcf	_SystemOn/(0+8),_SystemOn& (0+7)
  2018  0430  01DA               	clrf	Display_SetAux@state
  2019  0431  24DF  120A  118A   	fcall	_Display_SetAux
  2020  0434  3002               	movlw	2
  2021                           
  2022                           ;Task.c: 20: Display_SetAux(2, 0);
  2023  0435  01DA               	clrf	Display_SetAux@state
  2024  0436  24DF  120A  118A   	fcall	_Display_SetAux
  2025  0439  3003               	movlw	3
  2026                           
  2027                           ;Task.c: 21: Display_SetAux(3, 0);
  2028  043A  01DA               	clrf	Display_SetAux@state
  2029  043B  24DF  120A  118A   	fcall	_Display_SetAux
  2030  043E  3004               	movlw	4
  2031                           
  2032                           ;Task.c: 22: Display_SetAux(4, 0);
  2033  043F  01DA               	clrf	Display_SetAux@state
  2034  0440  24DF  120A  118A   	fcall	_Display_SetAux
  2035  0443  3005               	movlw	5
  2036                           
  2037                           ;Task.c: 23: Display_SetAux(5, 0);
  2038  0444  01DA               	clrf	Display_SetAux@state
  2039  0445  24DF  120A  118A   	fcall	_Display_SetAux
  2040  0448  3006               	movlw	6
  2041                           
  2042                           ;Task.c: 24: Display_SetAux(6, 0);
  2043  0449  01DA               	clrf	Display_SetAux@state
  2044  044A  24DF  120A  118A   	fcall	_Display_SetAux
  2045                           
  2046                           ;Task.c: 26: PTC_SetDuty(0);
  2047  044D  3000               	movlw	0
  2048  044E  250C               	fcall	_PTC_SetDuty
  2049                           
  2050                           ;Task.c: 27: Dis_SC1 = 17;
  2051  044F  3011               	movlw	17
  2052  0450  00DF               	movwf	_Dis_SC1
  2053                           
  2054                           ;Task.c: 28: Dis_SC0 = 17;
  2055  0451  00C4               	movwf	_Dis_SC0
  2056                           
  2057                           ;Task.c: 30: SwingState = 0;
  2058  0452  115E               	bcf	_SwingState/(0+8),_SwingState& (0+7)
  2059                           
  2060                           ;Task.c: 31: State = 0;
  2061  0453  01BE               	clrf	_State
  2062  0454  0008               	return
  2063  0455                     __end_of_System_Shutdown:	
  2064  0455                     __ptext1:	
  2065 ;; *************** function _TaskKey *****************
  2066 ;; Defined at:
  2067 ;;		line 34 in file "D:\Homework\laptop\Homework\Ç¶ČëĘ˝\warmFan_finish\Task.c"
  2068 ;; Parameters:    Size  Location     Type
  2069 ;;		None
  2070 ;; Auto vars:     Size  Location     Type
  2071 ;;		None
  2072 ;; Return value:  Size  Location     Type
  2073 ;;                  1    wreg      void 
  2074 ;; Registers used:
  2075 ;;		wreg, fsr0l, fsr0h, status,2, status,0, pclath, cstack
  2076 ;; Tracked objects:
  2077 ;;		On entry : 300/0
  2078 ;;		On exit  : 300/0
  2079 ;;		Unchanged: 0/0
  2080 ;; Data sizes:     COMMON   BANK0   BANK1   BANK2
  2081 ;;      Params:         0       0       0       0
  2082 ;;      Locals:         0       0       0       0
  2083 ;;      Temps:          0       0       0       0
  2084 ;;      Totals:         0       0       0       0
  2085 ;;Total ram usage:        0 bytes
  2086 ;; Hardware stack levels used:    1
  2087 ;; Hardware stack levels required when called:    8
  2088 ;; This function calls:
  2089 ;;		_Display_SetAux
  2090 ;;		_PTC_SetDuty
  2091 ;;		_System_Shutdown
  2092 ;; This function is called by:
  2093 ;;		_main
  2094 ;; This function uses a non-reentrant model
  2095 ;;
  2096                           
  2097                           
  2098                           ;psect for function _TaskKey
  2099  0455                     _TaskKey:	
  2100                           
  2101                           ;Task.c: 35: static unsigned char lastKeyValue = 0;
  2102                           ;Task.c: 38: if (keyValue != 0 && lastKeyValue == 0) {
  2103                           
  2104                           ;incstack = 0
  2105 ;; hardware stack exceeded
  2106                           ; Regs used in _TaskKey: [wreg-fsr0h+status,2+status,0+pclath+cstack]
  2107  0455  083F               	movf	_keyValue,w
  2108  0456  1903               	btfsc	3,2
  2109  0457  2CDC               	goto	l8674
  2110  0458  083D               	movf	TaskKey@lastKeyValue,w
  2111  0459  1903               	btfsc	3,2
  2112  045A  2CCE               	goto	l8672
  2113  045B  2CDC               	goto	l8674
  2114  045C                     l2290:	
  2115                           ;Task.c: 41: case 4:
  2116                           
  2117                           
  2118                           ;Task.c: 42: if (!SystemOn) {
  2119  045C  1A5E               	btfsc	_SystemOn/(0+8),_SystemOn& (0+7)
  2120  045D  2C7F               	goto	l8626
  2121  045E  3001               	movlw	1
  2122                           
  2123                           ;Task.c: 43: SystemOn = 1;
  2124  045F  165E               	bsf	_SystemOn/(0+8),_SystemOn& (0+7)
  2125                           
  2126                           ;Task.c: 45: WorkMode = 0;
  2127  0460  11DE               	bcf	_WorkMode/(0+8),_WorkMode& (0+7)
  2128                           
  2129                           ;Task.c: 46: TimerVal = 0;
  2130  0461  01C3               	clrf	_TimerVal
  2131                           
  2132                           ;Task.c: 48: SwingState = 0;
  2133  0462  115E               	bcf	_SwingState/(0+8),_SwingState& (0+7)
  2134                           
  2135                           ;Task.c: 49: State = 0;
  2136  0463  01BE               	clrf	_State
  2137  0464  01DA               	clrf	Display_SetAux@state
  2138  0465  0ADA               	incf	Display_SetAux@state,f
  2139  0466  24DF  120A  118A   	fcall	_Display_SetAux
  2140  0469  3002               	movlw	2
  2141                           
  2142                           ;Task.c: 53: Display_SetAux(2, 0);
  2143  046A  01DA               	clrf	Display_SetAux@state
  2144  046B  24DF  120A  118A   	fcall	_Display_SetAux
  2145  046E  3003               	movlw	3
  2146                           
  2147                           ;Task.c: 54: Display_SetAux(3, 0);
  2148  046F  01DA               	clrf	Display_SetAux@state
  2149  0470  24DF  120A  118A   	fcall	_Display_SetAux
  2150  0473  3004               	movlw	4
  2151                           
  2152                           ;Task.c: 55: Display_SetAux(4, 0);
  2153  0474  01DA               	clrf	Display_SetAux@state
  2154  0475  24DF  120A  118A   	fcall	_Display_SetAux
  2155                           
  2156                           ;Task.c: 57: PTC_SetDuty(0);
  2157  0478  3000               	movlw	0
  2158  0479  250C  120A  118A   	fcall	_PTC_SetDuty
  2159  047C                     l8622:	
  2160                           
  2161                           ;Task.c: 58: Dis_SC1 = 0;
  2162  047C  01DF               	clrf	_Dis_SC1
  2163                           
  2164                           ;Task.c: 59: Dis_SC0 = 0;
  2165  047D  01C4               	clrf	_Dis_SC0
  2166                           
  2167                           ;Task.c: 61: } else {
  2168  047E  2CDC               	goto	l8674
  2169  047F                     l8626:	
  2170                           
  2171                           ;Task.c: 63: System_Shutdown();
  2172  047F  242E  120A  118A   	fcall	_System_Shutdown
  2173  0482  2CDC               	goto	l8674
  2174  0483                     l2294:	
  2175                           ;Task.c: 67: case 2:
  2176                           
  2177                           
  2178                           ;Task.c: 68: if (SystemOn) {
  2179  0483  1E5E               	btfss	_SystemOn/(0+8),_SystemOn& (0+7)
  2180  0484  2CDC               	goto	l8674
  2181                           
  2182                           ;Task.c: 69: WorkMode = !WorkMode;
  2183  0485  3008               	movlw	(0+1) shl (_WorkMode& (0+7))
  2184  0486  06DE               	xorwf	_WorkMode/(0+8),f
  2185                           
  2186                           ;Task.c: 70: if (WorkMode) {
  2187  0487  1DDE               	btfss	_WorkMode/(0+8),_WorkMode& (0+7)
  2188  0488  2C94               	goto	l8636
  2189  0489  3002               	movlw	2
  2190                           
  2191                           ;Task.c: 71: Display_SetAux(2, 1);
  2192  048A  01DA               	clrf	Display_SetAux@state
  2193  048B  0ADA               	incf	Display_SetAux@state,f
  2194  048C  24DF  120A  118A   	fcall	_Display_SetAux
  2195                           
  2196                           ;Task.c: 72: PTC_SetDuty(100);
  2197  048F  3064               	movlw	100
  2198  0490  250C  120A  118A   	fcall	_PTC_SetDuty
  2199                           
  2200                           ;Task.c: 73: } else {
  2201  0493  2CDC               	goto	l8674
  2202  0494                     l8636:	
  2203  0494  3002               	movlw	2
  2204                           
  2205                           ;Task.c: 74: Display_SetAux(2, 0);
  2206  0495  01DA               	clrf	Display_SetAux@state
  2207  0496  24DF  120A  118A   	fcall	_Display_SetAux
  2208                           
  2209                           ;Task.c: 75: PTC_SetDuty(0);
  2210  0499  3000               	movlw	0
  2211  049A  250C  120A  118A   	fcall	_PTC_SetDuty
  2212  049D  2CDC               	goto	l8674
  2213  049E                     l2298:	
  2214                           ;Task.c: 80: case 3:
  2215                           
  2216                           
  2217                           ;Task.c: 81: if (SystemOn) {
  2218  049E  1E5E               	btfss	_SystemOn/(0+8),_SystemOn& (0+7)
  2219  049F  2CDC               	goto	l8674
  2220                           
  2221                           ;Task.c: 82: SwingState = !SwingState;
  2222  04A0  3004               	movlw	(0+1) shl (_SwingState& (0+7))
  2223  04A1  06DE               	xorwf	_SwingState/(0+8),f
  2224                           
  2225                           ;Task.c: 83: State = SwingState;
  2226  04A2  3000               	movlw	0
  2227  04A3  195E               	btfsc	_SwingState/(0+8),_SwingState& (0+7)
  2228  04A4  3001               	movlw	1
  2229  04A5  00BE               	movwf	_State
  2230                           
  2231                           ;Task.c: 84: if (SwingState) {
  2232  04A6  1D5E               	btfss	_SwingState/(0+8),_SwingState& (0+7)
  2233  04A7  2CAF               	goto	l8648
  2234  04A8  3003               	movlw	3
  2235                           
  2236                           ;Task.c: 85: Display_SetAux(3, 1);
  2237  04A9  01DA               	clrf	Display_SetAux@state
  2238  04AA  0ADA               	incf	Display_SetAux@state,f
  2239  04AB  24DF  120A  118A   	fcall	_Display_SetAux
  2240                           
  2241                           ;Task.c: 86: } else {
  2242  04AE  2CDC               	goto	l8674
  2243  04AF                     l8648:	
  2244  04AF  3003               	movlw	3
  2245                           
  2246                           ;Task.c: 87: Display_SetAux(3, 0);
  2247  04B0  01DA               	clrf	Display_SetAux@state
  2248  04B1  24DF  120A  118A   	fcall	_Display_SetAux
  2249  04B4  2CDC               	goto	l8674
  2250  04B5                     l2302:	
  2251                           ;Task.c: 92: case 1:
  2252                           
  2253                           
  2254                           ;Task.c: 93: if (SystemOn) {
  2255  04B5  1E5E               	btfss	_SystemOn/(0+8),_SystemOn& (0+7)
  2256  04B6  2CDC               	goto	l8674
  2257  04B7  300A               	movlw	10
  2258                           
  2259                           ;Task.c: 94: TimerVal++;
  2260  04B8  0AC3               	incf	_TimerVal,f
  2261                           
  2262                           ;Task.c: 95: if (TimerVal > 9) TimerVal = 0;
  2263  04B9  0243               	subwf	_TimerVal,w
  2264  04BA  1803               	btfsc	3,0
  2265  04BB  01C3               	clrf	_TimerVal
  2266                           
  2267                           ;Task.c: 97: if (TimerVal > 0) {
  2268  04BC  0843               	movf	_TimerVal,w
  2269  04BD  3004               	movlw	4
  2270  04BE  1903               	btfsc	3,2
  2271  04BF  2CC9               	goto	L1
  2272                           
  2273                           ;Task.c: 98: Display_SetAux(4, 1);
  2274  04C0  01DA               	clrf	Display_SetAux@state
  2275  04C1  0ADA               	incf	Display_SetAux@state,f
  2276  04C2  24DF  120A  118A   	fcall	_Display_SetAux
  2277                           
  2278                           ;Task.c: 99: Dis_SC1 = 0;
  2279  04C5  01DF               	clrf	_Dis_SC1
  2280                           
  2281                           ;Task.c: 100: Dis_SC0 = TimerVal;
  2282  04C6  0843               	movf	_TimerVal,w
  2283  04C7  00C4               	movwf	_Dis_SC0
  2284                           
  2285                           ;Task.c: 101: } else {
  2286  04C8  2CDC               	goto	l8674
  2287  04C9                     L1:	
  2288                           
  2289                           ;Task.c: 102: Display_SetAux(4, 0);
  2290  04C9  01DA               	clrf	Display_SetAux@state
  2291  04CA  24DF  120A  118A   	fcall	_Display_SetAux
  2292  04CD  2C7C               	goto	l8622
  2293  04CE                     l8672:	
  2294  04CE  083F               	movf	_keyValue,w
  2295                           
  2296                           ; Switch size 1, requested type "space"
  2297                           ; Number of cases is 4, Range of values is 1 to 4
  2298                           ; switch strategies available:
  2299                           ; Name         Instructions Cycles
  2300                           ; simple_byte           13     7 (average)
  2301                           ; direct_byte           23    11 (fixed)
  2302                           ; jumptable            263     9 (fixed)
  2303                           ;	Chosen strategy is simple_byte
  2304  04CF  3A01               	xorlw	1	; case 1
  2305  04D0  1903               	skipnz
  2306  04D1  2CB5               	goto	l2302
  2307  04D2  3A03               	xorlw	3	; case 2
  2308  04D3  1903               	skipnz
  2309  04D4  2C83               	goto	l2294
  2310  04D5  3A01               	xorlw	1	; case 3
  2311  04D6  1903               	skipnz
  2312  04D7  2C9E               	goto	l2298
  2313  04D8  3A07               	xorlw	7	; case 4
  2314  04D9  1903               	skipnz
  2315  04DA  2C5C               	goto	l2290
  2316  04DB  2CDC               	goto	l8674
  2317  04DC                     l8674:	
  2318                           
  2319                           ;Task.c: 112: }
  2320                           ;Task.c: 114: lastKeyValue = keyValue;
  2321  04DC  083F               	movf	_keyValue,w
  2322  04DD  00BD               	movwf	TaskKey@lastKeyValue
  2323  04DE  0008               	return
  2324  04DF                     __end_of_TaskKey:	
  2325  04DF                     __ptext4:	
  2326 ;; *************** function _Display_SetAux *****************
  2327 ;; Defined at:
  2328 ;;		line 148 in file "D:\Homework\laptop\Homework\Ç¶ČëĘ˝\warmFan_finish\Display.c"
  2329 ;; Parameters:    Size  Location     Type
  2330 ;;  aux_id          1    wreg     unsigned char 
  2331 ;;  state           1   21[BANK0 ] unsigned char 
  2332 ;; Auto vars:     Size  Location     Type
  2333 ;;  aux_id          1   22[BANK0 ] unsigned char 
  2334 ;; Return value:  Size  Location     Type
  2335 ;;                  1    wreg      void 
  2336 ;; Registers used:
  2337 ;;		wreg, fsr0l, fsr0h, status,2, status,0, pclath, cstack
  2338 ;; Tracked objects:
  2339 ;;		On entry : 300/0
  2340 ;;		On exit  : 300/0
  2341 ;;		Unchanged: 0/0
  2342 ;; Data sizes:     COMMON   BANK0   BANK1   BANK2
  2343 ;;      Params:         0       1       0       0
  2344 ;;      Locals:         0       1       0       0
  2345 ;;      Temps:          0       0       0       0
  2346 ;;      Totals:         0       2       0       0
  2347 ;;Total ram usage:        2 bytes
  2348 ;; Hardware stack levels used:    1
  2349 ;; Hardware stack levels required when called:    6
  2350 ;; This function calls:
  2351 ;;		_Display_SetSegment
  2352 ;; This function is called by:
  2353 ;;		_System_Shutdown
  2354 ;;		_TaskKey
  2355 ;; This function uses a non-reentrant model
  2356 ;;
  2357                           
  2358                           
  2359                           ;psect for function _Display_SetAux
  2360  04DF                     _Display_SetAux:	
  2361                           
  2362                           ;incstack = 0
  2363 ;; hardware stack exceeded
  2364                           ; Regs used in _Display_SetAux: [wreg-fsr0h+status,2+status,0+pclath+cstack]
  2365                           ;Display_SetAux@aux_id stored from wreg
  2366  04DF  00DB               	movwf	Display_SetAux@aux_id
  2367                           
  2368                           ; Switch size 1, requested type "space"
  2369                           ; Number of cases is 6, Range of values is 1 to 6
  2370                           ; switch strategies available:
  2371                           ; Name         Instructions Cycles
  2372                           ; simple_byte           19    10 (average)
  2373                           ; direct_byte           29    11 (fixed)
  2374                           ; jumptable            263     9 (fixed)
  2375                           ;	Chosen strategy is simple_byte
  2376                           
  2377                           ;Display.c: 149: switch(aux_id) {
  2378  04E0  3A01               	xorlw	1	; case 1
  2379  04E1  1903               	skipnz
  2380  04E2  2CF3               	goto	l7734
  2381  04E3  3A03               	xorlw	3	; case 2
  2382  04E4  1903               	skipnz
  2383  04E5  2CF7               	goto	l7736
  2384  04E6  3A01               	xorlw	1	; case 3
  2385  04E7  1903               	skipnz
  2386  04E8  2CFB               	goto	l7738
  2387  04E9  3A07               	xorlw	7	; case 4
  2388  04EA  1903               	skipnz
  2389  04EB  2CFF               	goto	l7740
  2390  04EC  3A01               	xorlw	1	; case 5
  2391  04ED  1903               	skipnz
  2392  04EE  2D03               	goto	l7742
  2393  04EF  3A03               	xorlw	3	; case 6
  2394  04F0  1903               	skipnz
  2395  04F1  2D07               	goto	l7744
  2396  04F2  2D0B               	goto	l5970
  2397  04F3                     l7734:	
  2398  04F3  085A               	movf	Display_SetAux@state,w
  2399  04F4  00D5               	movwf	Display_SetSegment@state
  2400  04F5  3020               	movlw	32
  2401  04F6  2DB3               	ljmp	_Display_SetSegment
  2402  04F7                     l7736:	
  2403  04F7  085A               	movf	Display_SetAux@state,w
  2404  04F8  00D5               	movwf	Display_SetSegment@state
  2405  04F9  3021               	movlw	33
  2406  04FA  2DB3               	ljmp	_Display_SetSegment
  2407  04FB                     l7738:	
  2408  04FB  085A               	movf	Display_SetAux@state,w
  2409  04FC  00D5               	movwf	Display_SetSegment@state
  2410  04FD  3023               	movlw	35
  2411  04FE  2DB3               	ljmp	_Display_SetSegment
  2412  04FF                     l7740:	
  2413  04FF  085A               	movf	Display_SetAux@state,w
  2414  0500  00D5               	movwf	Display_SetSegment@state
  2415  0501  3024               	movlw	36
  2416  0502  2DB3               	ljmp	_Display_SetSegment
  2417  0503                     l7742:	
  2418  0503  085A               	movf	Display_SetAux@state,w
  2419  0504  00D5               	movwf	Display_SetSegment@state
  2420  0505  3042               	movlw	66
  2421  0506  2DB3               	ljmp	_Display_SetSegment
  2422  0507                     l7744:	
  2423  0507  085A               	movf	Display_SetAux@state,w
  2424  0508  00D5               	movwf	Display_SetSegment@state
  2425  0509  3043               	movlw	67
  2426  050A  2DB3               	ljmp	_Display_SetSegment
  2427  050B                     l5970:	
  2428  050B  0008               	return
  2429  050C                     __end_of_Display_SetAux:	
  2430  050C                     __ptext3:	
  2431 ;; *************** function _PTC_SetDuty *****************
  2432 ;; Defined at:
  2433 ;;		line 44 in file "D:\Homework\laptop\Homework\Ç¶ČëĘ˝\warmFan_finish\ptc_driver.c"
  2434 ;; Parameters:    Size  Location     Type
  2435 ;;  dutyPercent     1    wreg     unsigned char 
  2436 ;; Auto vars:     Size  Location     Type
  2437 ;;  dutyPercent     1   20[BANK0 ] unsigned char 
  2438 ;;  dutyRaw         2   18[BANK0 ] unsigned int 
  2439 ;; Return value:  Size  Location     Type
  2440 ;;                  1    wreg      void 
  2441 ;; Registers used:
  2442 ;;		wreg, status,2, status,0
  2443 ;; Tracked objects:
  2444 ;;		On entry : 300/0
  2445 ;;		On exit  : 300/0
  2446 ;;		Unchanged: 0/0
  2447 ;; Data sizes:     COMMON   BANK0   BANK1   BANK2
  2448 ;;      Params:         0       0       0       0
  2449 ;;      Locals:         0       3       0       0
  2450 ;;      Temps:          0       2       0       0
  2451 ;;      Totals:         0       5       0       0
  2452 ;;Total ram usage:        5 bytes
  2453 ;; Hardware stack levels used:    1
  2454 ;; Hardware stack levels required when called:    5
  2455 ;; This function calls:
  2456 ;;		Nothing
  2457 ;; This function is called by:
  2458 ;;		_System_Shutdown
  2459 ;;		_TaskKey
  2460 ;; This function uses a non-reentrant model
  2461 ;;
  2462                           
  2463                           
  2464                           ;psect for function _PTC_SetDuty
  2465  050C                     _PTC_SetDuty:	
  2466                           
  2467                           ;incstack = 0
  2468                           ; Regs used in _PTC_SetDuty: [wreg+status,2+status,0]
  2469                           ;PTC_SetDuty@dutyPercent stored from wreg
  2470  050C  00D9               	movwf	PTC_SetDuty@dutyPercent
  2471                           
  2472                           ;ptc_driver.c: 45: unsigned int dutyRaw;
  2473                           ;ptc_driver.c: 47: if (dutyPercent > 100) {
  2474  050D  3065               	movlw	101
  2475  050E  0259               	subwf	PTC_SetDuty@dutyPercent,w
  2476  050F  1C03               	skipc
  2477  0510  2D13               	goto	l5182
  2478                           
  2479                           ;ptc_driver.c: 48: dutyPercent = 100;
  2480  0511  3064               	movlw	100
  2481  0512  00D9               	movwf	PTC_SetDuty@dutyPercent
  2482  0513                     l5182:	
  2483                           
  2484                           ;ptc_driver.c: 49: }
  2485                           ;ptc_driver.c: 54: dutyRaw = (unsigned int)dutyPercent * 4;
  2486  0513  0859               	movf	PTC_SetDuty@dutyPercent,w
  2487  0514  00D7               	movwf	PTC_SetDuty@dutyRaw
  2488  0515  01D8               	clrf	PTC_SetDuty@dutyRaw+1
  2489  0516  1003               	clrc
  2490  0517  0DD7               	rlf	PTC_SetDuty@dutyRaw,f
  2491  0518  0DD8               	rlf	PTC_SetDuty@dutyRaw+1,f
  2492  0519  1003               	clrc
  2493  051A  0DD7               	rlf	PTC_SetDuty@dutyRaw,f
  2494  051B  0DD8               	rlf	PTC_SetDuty@dutyRaw+1,f
  2495                           
  2496                           ;ptc_driver.c: 58: CCPR2L = (unsigned char)(dutyRaw >> 2);
  2497  051C  0858               	movf	PTC_SetDuty@dutyRaw+1,w
  2498  051D  00D6               	movwf	??_PTC_SetDuty+1
  2499  051E  0857               	movf	PTC_SetDuty@dutyRaw,w
  2500  051F  00D5               	movwf	??_PTC_SetDuty
  2501  0520  1003               	clrc
  2502  0521  0CD6               	rrf	??_PTC_SetDuty+1,f
  2503  0522  0CD5               	rrf	??_PTC_SetDuty,f
  2504  0523  1003               	clrc
  2505  0524  0CD6               	rrf	??_PTC_SetDuty+1,f
  2506  0525  0CD5               	rrf	??_PTC_SetDuty,f
  2507  0526  0855               	movf	??_PTC_SetDuty,w
  2508  0527  009B               	movwf	27	;volatile
  2509                           
  2510                           ;ptc_driver.c: 62: CCP2CON = (CCP2CON & 0xCF) | ((dutyRaw & 0x03) << 4);
  2511  0528  0857               	movf	PTC_SetDuty@dutyRaw,w
  2512  0529  3903               	andlw	3
  2513  052A  00D5               	movwf	??_PTC_SetDuty
  2514  052B  0E55               	swapf	??_PTC_SetDuty,w
  2515  052C  39F0               	andlw	240
  2516  052D  00D5               	movwf	??_PTC_SetDuty
  2517  052E  081D               	movf	29,w	;volatile
  2518  052F  39CF               	andlw	207
  2519  0530  0455               	iorwf	??_PTC_SetDuty,w
  2520  0531  009D               	movwf	29	;volatile
  2521  0532  0008               	return
  2522  0533                     __end_of_PTC_SetDuty:	
  2523  0533                     __ptext20:	
  2524 ;; *************** function _Display_SetDigit *****************
  2525 ;; Defined at:
  2526 ;;		line 121 in file "D:\Homework\laptop\Homework\Ç¶ČëĘ˝\warmFan_finish\Display.c"
  2527 ;; Parameters:    Size  Location     Type
  2528 ;;  digit_pos       1    wreg     unsigned char 
  2529 ;;  num             1   21[BANK0 ] unsigned char 
  2530 ;; Auto vars:     Size  Location     Type
  2531 ;;  digit_pos       1   22[BANK0 ] unsigned char 
  2532 ;;  map             1   23[BANK0 ] unsigned char 
  2533 ;; Return value:  Size  Location     Type
  2534 ;;                  1    wreg      void 
  2535 ;; Registers used:
  2536 ;;		wreg, fsr0l, fsr0h, status,2, status,0, pclath, cstack
  2537 ;; Tracked objects:
  2538 ;;		On entry : 300/0
  2539 ;;		On exit  : 300/0
  2540 ;;		Unchanged: 0/0
  2541 ;; Data sizes:     COMMON   BANK0   BANK1   BANK2
  2542 ;;      Params:         0       1       0       0
  2543 ;;      Locals:         0       2       0       0
  2544 ;;      Temps:          0       0       0       0
  2545 ;;      Totals:         0       3       0       0
  2546 ;;Total ram usage:        3 bytes
  2547 ;; Hardware stack levels used:    1
  2548 ;; Hardware stack levels required when called:    6
  2549 ;; This function calls:
  2550 ;;		_Display_SetSegment
  2551 ;; This function is called by:
  2552 ;;		_Display_UpdateData
  2553 ;; This function uses a non-reentrant model
  2554 ;;
  2555                           
  2556                           
  2557                           ;psect for function _Display_SetDigit
  2558  0533                     _Display_SetDigit:	
  2559                           
  2560                           ;incstack = 0
  2561 ;; using string table level
  2562                           ; Regs used in _Display_SetDigit: [wreg-fsr0h+status,2+status,0+pclath+cstack]
  2563                           ;Display_SetDigit@digit_pos stored from wreg
  2564  0533  00DB               	movwf	Display_SetDigit@digit_pos
  2565                           
  2566                           ;Display.c: 124: if (num <= 9) map = DIGIT_MAP[num];
  2567  0534  300A               	movlw	10
  2568  0535  025A               	subwf	Display_SetDigit@num,w
  2569  0536  1803               	skipnc
  2570  0537  2D42               	goto	l8038
  2571  0538  085A               	movf	Display_SetDigit@num,w
  2572  0539  3E01               	addlw	low ((_DIGIT_MAP-__stringbase)| (0+32768))
  2573  053A  0084               	movwf	4
  2574  053B  120A  158A  2000  120A  118A  	fcall	stringdir
  2575  0540  00DC               	movwf	Display_SetDigit@map
  2576  0541  2D43               	goto	l8040
  2577  0542                     l8038:	
  2578                           
  2579                           ;Display.c: 125: else map = 0;
  2580  0542  01DC               	clrf	Display_SetDigit@map
  2581  0543                     l8040:	
  2582                           
  2583                           ;Display.c: 129: if (digit_pos == 1) {
  2584  0543  0B5B               	decfsz	Display_SetDigit@digit_pos,w
  2585  0544  2D79               	goto	l8044
  2586                           
  2587                           ;Display.c: 130: Display_SetSegment(0x01, (map & 0x01));
  2588  0545  085C               	movf	Display_SetDigit@map,w
  2589  0546  00D5               	movwf	Display_SetSegment@state
  2590  0547  3001               	movlw	1
  2591  0548  05D5               	andwf	Display_SetSegment@state,f
  2592  0549  25B3  120A  118A   	fcall	_Display_SetSegment
  2593                           
  2594                           ;Display.c: 131: Display_SetSegment(0x02, (map & 0x02));
  2595  054C  085C               	movf	Display_SetDigit@map,w
  2596  054D  00D5               	movwf	Display_SetSegment@state
  2597  054E  3002               	movlw	2
  2598  054F  05D5               	andwf	Display_SetSegment@state,f
  2599  0550  25B3  120A  118A   	fcall	_Display_SetSegment
  2600                           
  2601                           ;Display.c: 132: Display_SetSegment(0x03, (map & 0x04));
  2602  0553  085C               	movf	Display_SetDigit@map,w
  2603  0554  00D5               	movwf	Display_SetSegment@state
  2604  0555  3004               	movlw	4
  2605  0556  05D5               	andwf	Display_SetSegment@state,f
  2606  0557  3003               	movlw	3
  2607  0558  25B3  120A  118A   	fcall	_Display_SetSegment
  2608                           
  2609                           ;Display.c: 133: Display_SetSegment(0x04, (map & 0x08));
  2610  055B  085C               	movf	Display_SetDigit@map,w
  2611  055C  00D5               	movwf	Display_SetSegment@state
  2612  055D  3008               	movlw	8
  2613  055E  05D5               	andwf	Display_SetSegment@state,f
  2614  055F  3004               	movlw	4
  2615  0560  25B3  120A  118A   	fcall	_Display_SetSegment
  2616                           
  2617                           ;Display.c: 134: Display_SetSegment(0x30, (map & 0x10));
  2618  0563  085C               	movf	Display_SetDigit@map,w
  2619  0564  00D5               	movwf	Display_SetSegment@state
  2620  0565  3010               	movlw	16
  2621  0566  05D5               	andwf	Display_SetSegment@state,f
  2622  0567  3030               	movlw	48
  2623  0568  25B3  120A  118A   	fcall	_Display_SetSegment
  2624                           
  2625                           ;Display.c: 135: Display_SetSegment(0x31, (map & 0x20));
  2626  056B  085C               	movf	Display_SetDigit@map,w
  2627  056C  00D5               	movwf	Display_SetSegment@state
  2628  056D  3020               	movlw	32
  2629  056E  05D5               	andwf	Display_SetSegment@state,f
  2630  056F  3031               	movlw	49
  2631  0570  25B3  120A  118A   	fcall	_Display_SetSegment
  2632                           
  2633                           ;Display.c: 136: Display_SetSegment(0x32, (map & 0x40));
  2634  0573  085C               	movf	Display_SetDigit@map,w
  2635  0574  00D5               	movwf	Display_SetSegment@state
  2636  0575  3040               	movlw	64
  2637  0576  05D5               	andwf	Display_SetSegment@state,f
  2638  0577  3032               	movlw	50
  2639  0578  2DB3               	ljmp	_Display_SetSegment
  2640  0579                     l8044:	
  2641                           ;Display.c: 137: } else if (digit_pos == 2) {
  2642                           
  2643  0579  3002               	movlw	2
  2644  057A  065B               	xorwf	Display_SetDigit@digit_pos,w
  2645  057B  1D03               	btfss	3,2
  2646  057C  0008               	return
  2647                           
  2648                           ;Display.c: 138: Display_SetSegment(0x10, (map & 0x01));
  2649  057D  085C               	movf	Display_SetDigit@map,w
  2650  057E  00D5               	movwf	Display_SetSegment@state
  2651  057F  3001               	movlw	1
  2652  0580  05D5               	andwf	Display_SetSegment@state,f
  2653  0581  3010               	movlw	16
  2654  0582  25B3  120A  118A   	fcall	_Display_SetSegment
  2655                           
  2656                           ;Display.c: 139: Display_SetSegment(0x12, (map & 0x02));
  2657  0585  085C               	movf	Display_SetDigit@map,w
  2658  0586  00D5               	movwf	Display_SetSegment@state
  2659  0587  3002               	movlw	2
  2660  0588  05D5               	andwf	Display_SetSegment@state,f
  2661  0589  3012               	movlw	18
  2662  058A  25B3  120A  118A   	fcall	_Display_SetSegment
  2663                           
  2664                           ;Display.c: 140: Display_SetSegment(0x13, (map & 0x04));
  2665  058D  085C               	movf	Display_SetDigit@map,w
  2666  058E  00D5               	movwf	Display_SetSegment@state
  2667  058F  3004               	movlw	4
  2668  0590  05D5               	andwf	Display_SetSegment@state,f
  2669  0591  3013               	movlw	19
  2670  0592  25B3  120A  118A   	fcall	_Display_SetSegment
  2671                           
  2672                           ;Display.c: 141: Display_SetSegment(0x14, (map & 0x08));
  2673  0595  085C               	movf	Display_SetDigit@map,w
  2674  0596  00D5               	movwf	Display_SetSegment@state
  2675  0597  3008               	movlw	8
  2676  0598  05D5               	andwf	Display_SetSegment@state,f
  2677  0599  3014               	movlw	20
  2678  059A  25B3  120A  118A   	fcall	_Display_SetSegment
  2679                           
  2680                           ;Display.c: 142: Display_SetSegment(0x34, (map & 0x10));
  2681  059D  085C               	movf	Display_SetDigit@map,w
  2682  059E  00D5               	movwf	Display_SetSegment@state
  2683  059F  3010               	movlw	16
  2684  05A0  05D5               	andwf	Display_SetSegment@state,f
  2685  05A1  3034               	movlw	52
  2686  05A2  25B3  120A  118A   	fcall	_Display_SetSegment
  2687                           
  2688                           ;Display.c: 143: Display_SetSegment(0x40, (map & 0x20));
  2689  05A5  085C               	movf	Display_SetDigit@map,w
  2690  05A6  00D5               	movwf	Display_SetSegment@state
  2691  05A7  3020               	movlw	32
  2692  05A8  05D5               	andwf	Display_SetSegment@state,f
  2693  05A9  3040               	movlw	64
  2694  05AA  25B3  120A  118A   	fcall	_Display_SetSegment
  2695                           
  2696                           ;Display.c: 144: Display_SetSegment(0x41, (map & 0x40));
  2697  05AD  085C               	movf	Display_SetDigit@map,w
  2698  05AE  00D5               	movwf	Display_SetSegment@state
  2699  05AF  3040               	movlw	64
  2700  05B0  05D5               	andwf	Display_SetSegment@state,f
  2701  05B1  3041               	movlw	65
  2702  05B2  2DB3               	ljmp	_Display_SetSegment
  2703  05B3                     __end_of_Display_SetDigit:	
  2704  05B3                     __ptext21:	
  2705 ;; *************** function _Display_SetSegment *****************
  2706 ;; Defined at:
  2707 ;;		line 83 in file "D:\Homework\laptop\Homework\Ç¶ČëĘ˝\warmFan_finish\Display.c"
  2708 ;; Parameters:    Size  Location     Type
  2709 ;;  seg_code        1    wreg     unsigned char 
  2710 ;;  state           1   16[BANK0 ] unsigned char 
  2711 ;; Auto vars:     Size  Location     Type
  2712 ;;  seg_code        1   18[BANK0 ] unsigned char 
  2713 ;;  sink            1   20[BANK0 ] unsigned char 
  2714 ;;  src             1   19[BANK0 ] unsigned char 
  2715 ;; Return value:  Size  Location     Type
  2716 ;;                  1    wreg      void 
  2717 ;; Registers used:
  2718 ;;		wreg, fsr0l, fsr0h, status,2, status,0
  2719 ;; Tracked objects:
  2720 ;;		On entry : 300/0
  2721 ;;		On exit  : 300/0
  2722 ;;		Unchanged: 0/0
  2723 ;; Data sizes:     COMMON   BANK0   BANK1   BANK2
  2724 ;;      Params:         0       1       0       0
  2725 ;;      Locals:         0       3       0       0
  2726 ;;      Temps:          0       1       0       0
  2727 ;;      Totals:         0       5       0       0
  2728 ;;Total ram usage:        5 bytes
  2729 ;; Hardware stack levels used:    1
  2730 ;; Hardware stack levels required when called:    5
  2731 ;; This function calls:
  2732 ;;		Nothing
  2733 ;; This function is called by:
  2734 ;;		_Display_SetDigit
  2735 ;;		_Display_SetAux
  2736 ;; This function uses a non-reentrant model
  2737 ;;
  2738                           
  2739                           
  2740                           ;psect for function _Display_SetSegment
  2741  05B3                     _Display_SetSegment:	
  2742                           
  2743                           ;incstack = 0
  2744 ;; hardware stack exceeded
  2745                           ; Regs used in _Display_SetSegment: [wreg-fsr0h+status,2+status,0]
  2746                           ;Display_SetSegment@seg_code stored from wreg
  2747  05B3  00D7               	movwf	Display_SetSegment@seg_code
  2748                           
  2749                           ;Display.c: 84: uint8_t src = (seg_code >> 4) & 0x0F;
  2750  05B4  0E57               	swapf	Display_SetSegment@seg_code,w
  2751  05B5  390F               	andlw	15
  2752  05B6  00D8               	movwf	Display_SetSegment@src
  2753  05B7  300F               	movlw	15
  2754  05B8  05D8               	andwf	Display_SetSegment@src,f
  2755                           
  2756                           ;Display.c: 85: uint8_t sink = seg_code & 0x0F;
  2757  05B9  0857               	movf	Display_SetSegment@seg_code,w
  2758  05BA  00D9               	movwf	Display_SetSegment@sink
  2759  05BB  300F               	movlw	15
  2760  05BC  05D9               	andwf	Display_SetSegment@sink,f
  2761                           
  2762                           ;Display.c: 87: if (src > 4 || sink > 4) return;
  2763  05BD  3005               	movlw	5
  2764  05BE  0258               	subwf	Display_SetSegment@src,w
  2765  05BF  1803               	skipnc
  2766  05C0  0008               	return
  2767  05C1  3005               	movlw	5
  2768  05C2  0259               	subwf	Display_SetSegment@sink,w
  2769  05C3  1803               	btfsc	3,0
  2770  05C4  0008               	return
  2771                           
  2772                           ;Display.c: 89: if (state) {
  2773  05C5  0855               	movf	Display_SetSegment@state,w
  2774  05C6  1903               	btfsc	3,2
  2775  05C7  2DD8               	goto	l7730
  2776                           
  2777                           ;Display.c: 90: disp_buffer[src] |= (1 << sink);
  2778  05C8  0858               	movf	Display_SetSegment@src,w
  2779  05C9  3E20               	addlw	(low (_disp_buffer| 0))& (0+255)
  2780  05CA  0084               	movwf	4
  2781  05CB  3001               	movlw	1
  2782  05CC  00D6               	movwf	??_Display_SetSegment
  2783  05CD  0A59               	incf	Display_SetSegment@sink,w
  2784  05CE  2DD1               	goto	u1384
  2785  05CF                     u1385:	
  2786  05CF  1003               	clrc
  2787  05D0  0DD6               	rlf	??_Display_SetSegment,f
  2788  05D1                     u1384:	
  2789  05D1  3EFF               	addlw	-1
  2790  05D2  1D03               	skipz
  2791  05D3  2DCF               	goto	u1385
  2792  05D4  0856               	movf	??_Display_SetSegment,w
  2793  05D5  1383               	bcf	3,7	;select IRP bank0
  2794  05D6  0480               	iorwf	0,f
  2795                           
  2796                           ;Display.c: 91: } else {
  2797  05D7  0008               	return
  2798  05D8                     l7730:	
  2799                           
  2800                           ;Display.c: 92: disp_buffer[src] &= ~(1 << sink);
  2801  05D8  0858               	movf	Display_SetSegment@src,w
  2802  05D9  3E20               	addlw	(low (_disp_buffer| 0))& (0+255)
  2803  05DA  0084               	movwf	4
  2804  05DB  3001               	movlw	1
  2805  05DC  00D6               	movwf	??_Display_SetSegment
  2806  05DD  0A59               	incf	Display_SetSegment@sink,w
  2807  05DE  2DE1               	goto	u1394
  2808  05DF                     u1395:	
  2809  05DF  1003               	clrc
  2810  05E0  0DD6               	rlf	??_Display_SetSegment,f
  2811  05E1                     u1394:	
  2812  05E1  3EFF               	addlw	-1
  2813  05E2  1D03               	skipz
  2814  05E3  2DDF               	goto	u1395
  2815  05E4  0856               	movf	??_Display_SetSegment,w
  2816  05E5  3AFF               	xorlw	255
  2817  05E6  1383               	bcf	3,7	;select IRP bank0
  2818  05E7  0580               	andwf	0,f
  2819  05E8  0008               	return
  2820  05E9                     __end_of_Display_SetSegment:	
  2821                           
  2822                           	psect	text22
  2823  0F76                     __ptext22:	
  2824 ;; *************** function _Display_Init *****************
  2825 ;; Defined at:
  2826 ;;		line 64 in file "D:\Homework\laptop\Homework\Ç¶ČëĘ˝\warmFan_finish\Display.c"
  2827 ;; Parameters:    Size  Location     Type
  2828 ;;		None
  2829 ;; Auto vars:     Size  Location     Type
  2830 ;;		None
  2831 ;; Return value:  Size  Location     Type
  2832 ;;                  1    wreg      void 
  2833 ;; Registers used:
  2834 ;;		wreg, fsr0l, fsr0h, status,2, status,0, pclath, cstack
  2835 ;; Tracked objects:
  2836 ;;		On entry : 300/0
  2837 ;;		On exit  : B00/0
  2838 ;;		Unchanged: 0/0
  2839 ;; Data sizes:     COMMON   BANK0   BANK1   BANK2
  2840 ;;      Params:         0       0       0       0
  2841 ;;      Locals:         0       0       0       0
  2842 ;;      Temps:          0       0       0       0
  2843 ;;      Totals:         0       0       0       0
  2844 ;;Total ram usage:        0 bytes
  2845 ;; Hardware stack levels used:    1
  2846 ;; Hardware stack levels required when called:    6
  2847 ;; This function calls:
  2848 ;;		_Display_Clear
  2849 ;;		_SetPin
  2850 ;; This function is called by:
  2851 ;;		_main
  2852 ;; This function uses a non-reentrant model
  2853 ;;
  2854                           
  2855                           
  2856                           ;psect for function _Display_Init
  2857  0F76                     _Display_Init:	
  2858                           
  2859                           ;incstack = 0
  2860                           ; Regs used in _Display_Init: [wreg-fsr0h+status,2+status,0+pclath+cstack]
  2861  0F76  3000               	movlw	0
  2862                           
  2863                           ;Display.c: 66: SetPin(0, 0);
  2864  0F77  01D5               	clrf	SetPin@mode
  2865  0F78  2794  120A  158A   	fcall	_SetPin
  2866                           
  2867                           ;Display.c: 67: SetPin(1, 0);
  2868  0F7B  1283               	bcf	3,5	;RP0=0, select bank0
  2869  0F7C  3001               	movlw	1
  2870  0F7D  01D5               	clrf	SetPin@mode
  2871  0F7E  2794  120A  158A   	fcall	_SetPin
  2872                           
  2873                           ;Display.c: 68: SetPin(2, 0);
  2874  0F81  1283               	bcf	3,5	;RP0=0, select bank0
  2875  0F82  3002               	movlw	2
  2876  0F83  01D5               	clrf	SetPin@mode
  2877  0F84  2794  120A  158A   	fcall	_SetPin
  2878                           
  2879                           ;Display.c: 69: SetPin(3, 0);
  2880  0F87  1283               	bcf	3,5	;RP0=0, select bank0
  2881  0F88  3003               	movlw	3
  2882  0F89  01D5               	clrf	SetPin@mode
  2883  0F8A  2794  120A  158A   	fcall	_SetPin
  2884                           
  2885                           ;Display.c: 70: SetPin(4, 0);
  2886  0F8D  1283               	bcf	3,5	;RP0=0, select bank0
  2887  0F8E  3004               	movlw	4
  2888  0F8F  01D5               	clrf	SetPin@mode
  2889  0F90  2794  120A  158A   	fcall	_SetPin
  2890                           
  2891                           ;Display.c: 73: Display_Clear();
  2892  0F93  2FF3               	ljmp	l7988
  2893  0F94                     __end_of_Display_Init:	
  2894  0F94                     __ptext23:	
  2895 ;; *************** function _SetPin *****************
  2896 ;; Defined at:
  2897 ;;		line 33 in file "D:\Homework\laptop\Homework\Ç¶ČëĘ˝\warmFan_finish\Display.c"
  2898 ;; Parameters:    Size  Location     Type
  2899 ;;  pin_idx         1    wreg     unsigned char 
  2900 ;;  mode            1   16[BANK0 ] unsigned char 
  2901 ;; Auto vars:     Size  Location     Type
  2902 ;;  pin_idx         1   17[BANK0 ] unsigned char 
  2903 ;; Return value:  Size  Location     Type
  2904 ;;                  1    wreg      void 
  2905 ;; Registers used:
  2906 ;;		wreg, fsr0l, fsr0h, status,2, status,0
  2907 ;; Tracked objects:
  2908 ;;		On entry : 300/0
  2909 ;;		On exit  : 200/0
  2910 ;;		Unchanged: 0/0
  2911 ;; Data sizes:     COMMON   BANK0   BANK1   BANK2
  2912 ;;      Params:         0       1       0       0
  2913 ;;      Locals:         0       1       0       0
  2914 ;;      Temps:          0       0       0       0
  2915 ;;      Totals:         0       2       0       0
  2916 ;;Total ram usage:        2 bytes
  2917 ;; Hardware stack levels used:    1
  2918 ;; Hardware stack levels required when called:    5
  2919 ;; This function calls:
  2920 ;;		Nothing
  2921 ;; This function is called by:
  2922 ;;		_Display_Init
  2923 ;; This function uses a non-reentrant model
  2924 ;;
  2925                           
  2926                           
  2927                           ;psect for function _SetPin
  2928  0F94                     _SetPin:	
  2929                           
  2930                           ;incstack = 0
  2931                           ; Regs used in _SetPin: [wreg-fsr0h+status,2+status,0]
  2932                           ;SetPin@pin_idx stored from wreg
  2933  0F94  00D6               	movwf	SetPin@pin_idx
  2934                           
  2935                           ;Display.c: 40: switch (pin_idx) {
  2936  0F95  2FE1               	goto	l7986
  2937  0F96                     l7944:	
  2938                           
  2939                           ;Display.c: 42: if (mode == 0) TRISA |= (1<<0);
  2940  0F96  0855               	movf	SetPin@mode,w
  2941  0F97  1D03               	btfss	3,2
  2942  0F98  2F9C               	goto	l5901
  2943  0F99  1683               	bsf	3,5	;RP0=1, select bank1
  2944  0F9A  1405               	bsf	5,0	;volatile
  2945  0F9B  0008               	return
  2946  0F9C                     l5901:	
  2947                           
  2948                           ;Display.c: 43: else { TRISA &= ~(1<<0); if(mode==1) PORTA |= (1<<0); else PORTA &= ~(1<
      +                          <0); }
  2949  0F9C  1683               	bsf	3,5	;RP0=1, select bank1
  2950  0F9D  1005               	bcf	5,0	;volatile
  2951  0F9E  1283               	bcf	3,5	;RP0=0, select bank0
  2952  0F9F  0B55               	decfsz	SetPin@mode,w
  2953  0FA0  2FA3               	goto	l5903
  2954  0FA1  1405               	bsf	5,0	;volatile
  2955  0FA2  0008               	return
  2956  0FA3                     l5903:	
  2957  0FA3  1005               	bcf	5,0	;volatile
  2958  0FA4  0008               	return
  2959  0FA5                     l7952:	
  2960                           
  2961                           ;Display.c: 46: if (mode == 0) TRISA |= (1<<1);
  2962  0FA5  0855               	movf	SetPin@mode,w
  2963  0FA6  1D03               	btfss	3,2
  2964  0FA7  2FAB               	goto	l5907
  2965  0FA8  1683               	bsf	3,5	;RP0=1, select bank1
  2966  0FA9  1485               	bsf	5,1	;volatile
  2967  0FAA  0008               	return
  2968  0FAB                     l5907:	
  2969                           
  2970                           ;Display.c: 47: else { TRISA &= ~(1<<1); if(mode==1) PORTA |= (1<<1); else PORTA &= ~(1<
      +                          <1); }
  2971  0FAB  1683               	bsf	3,5	;RP0=1, select bank1
  2972  0FAC  1085               	bcf	5,1	;volatile
  2973  0FAD  1283               	bcf	3,5	;RP0=0, select bank0
  2974  0FAE  0B55               	decfsz	SetPin@mode,w
  2975  0FAF  2FB2               	goto	l5909
  2976  0FB0  1485               	bsf	5,1	;volatile
  2977  0FB1  0008               	return
  2978  0FB2                     l5909:	
  2979  0FB2  1085               	bcf	5,1	;volatile
  2980  0FB3  0008               	return
  2981  0FB4                     l7960:	
  2982                           
  2983                           ;Display.c: 50: if (mode == 0) TRISA |= (1<<2);
  2984  0FB4  0855               	movf	SetPin@mode,w
  2985  0FB5  1D03               	btfss	3,2
  2986  0FB6  2FBA               	goto	l5912
  2987  0FB7  1683               	bsf	3,5	;RP0=1, select bank1
  2988  0FB8  1505               	bsf	5,2	;volatile
  2989  0FB9  0008               	return
  2990  0FBA                     l5912:	
  2991                           
  2992                           ;Display.c: 51: else { TRISA &= ~(1<<2); if(mode==1) PORTA |= (1<<2); else PORTA &= ~(1<
      +                          <2); }
  2993  0FBA  1683               	bsf	3,5	;RP0=1, select bank1
  2994  0FBB  1105               	bcf	5,2	;volatile
  2995  0FBC  1283               	bcf	3,5	;RP0=0, select bank0
  2996  0FBD  0B55               	decfsz	SetPin@mode,w
  2997  0FBE  2FC1               	goto	l5914
  2998  0FBF  1505               	bsf	5,2	;volatile
  2999  0FC0  0008               	return
  3000  0FC1                     l5914:	
  3001  0FC1  1105               	bcf	5,2	;volatile
  3002  0FC2  0008               	return
  3003  0FC3                     l7968:	
  3004                           
  3005                           ;Display.c: 54: if (mode == 0) TRISB |= (1<<4);
  3006  0FC3  0855               	movf	SetPin@mode,w
  3007  0FC4  1D03               	btfss	3,2
  3008  0FC5  2FC9               	goto	l5917
  3009  0FC6  1683               	bsf	3,5	;RP0=1, select bank1
  3010  0FC7  1606               	bsf	6,4	;volatile
  3011  0FC8  0008               	return
  3012  0FC9                     l5917:	
  3013                           
  3014                           ;Display.c: 55: else { TRISB &= ~(1<<4); if(mode==1) PORTB |= (1<<4); else PORTB &= ~(1<
      +                          <4); }
  3015  0FC9  1683               	bsf	3,5	;RP0=1, select bank1
  3016  0FCA  1206               	bcf	6,4	;volatile
  3017  0FCB  1283               	bcf	3,5	;RP0=0, select bank0
  3018  0FCC  0B55               	decfsz	SetPin@mode,w
  3019  0FCD  2FD0               	goto	l5919
  3020  0FCE  1606               	bsf	6,4	;volatile
  3021  0FCF  0008               	return
  3022  0FD0                     l5919:	
  3023  0FD0  1206               	bcf	6,4	;volatile
  3024  0FD1  0008               	return
  3025  0FD2                     l7976:	
  3026                           
  3027                           ;Display.c: 58: if (mode == 0) TRISB |= (1<<5);
  3028  0FD2  0855               	movf	SetPin@mode,w
  3029  0FD3  1D03               	btfss	3,2
  3030  0FD4  2FD8               	goto	l5922
  3031  0FD5  1683               	bsf	3,5	;RP0=1, select bank1
  3032  0FD6  1686               	bsf	6,5	;volatile
  3033  0FD7  0008               	return
  3034  0FD8                     l5922:	
  3035                           
  3036                           ;Display.c: 59: else { TRISB &= ~(1<<5); if(mode==1) PORTB |= (1<<5); else PORTB &= ~(1<
      +                          <5); }
  3037  0FD8  1683               	bsf	3,5	;RP0=1, select bank1
  3038  0FD9  1286               	bcf	6,5	;volatile
  3039  0FDA  1283               	bcf	3,5	;RP0=0, select bank0
  3040  0FDB  0B55               	decfsz	SetPin@mode,w
  3041  0FDC  2FDF               	goto	l5924
  3042  0FDD  1686               	bsf	6,5	;volatile
  3043  0FDE  0008               	return
  3044  0FDF                     l5924:	
  3045  0FDF  1286               	bcf	6,5	;volatile
  3046  0FE0  0008               	return
  3047  0FE1                     l7986:	
  3048  0FE1  0856               	movf	SetPin@pin_idx,w
  3049                           
  3050                           ; Switch size 1, requested type "space"
  3051                           ; Number of cases is 5, Range of values is 0 to 4
  3052                           ; switch strategies available:
  3053                           ; Name         Instructions Cycles
  3054                           ; simple_byte           16     9 (average)
  3055                           ; direct_byte           23     8 (fixed)
  3056                           ; jumptable            260     6 (fixed)
  3057                           ;	Chosen strategy is simple_byte
  3058  0FE2  3A00               	xorlw	0	; case 0
  3059  0FE3  1903               	skipnz
  3060  0FE4  2F96               	goto	l7944
  3061  0FE5  3A01               	xorlw	1	; case 1
  3062  0FE6  1903               	skipnz
  3063  0FE7  2FA5               	goto	l7952
  3064  0FE8  3A03               	xorlw	3	; case 2
  3065  0FE9  1903               	skipnz
  3066  0FEA  2FB4               	goto	l7960
  3067  0FEB  3A01               	xorlw	1	; case 3
  3068  0FEC  1903               	skipnz
  3069  0FED  2FC3               	goto	l7968
  3070  0FEE  3A07               	xorlw	7	; case 4
  3071  0FEF  1903               	skipnz
  3072  0FF0  2FD2               	goto	l7976
  3073  0FF1  2FF2               	goto	l5926
  3074  0FF2                     l5926:	
  3075  0FF2  0008               	return
  3076  0FF3                     __end_of_SetPin:	
  3077  0FF3                     __ptext24:	
  3078 ;; *************** function _Display_Clear *****************
  3079 ;; Defined at:
  3080 ;;		line 76 in file "D:\Homework\laptop\Homework\Ç¶ČëĘ˝\warmFan_finish\Display.c"
  3081 ;; Parameters:    Size  Location     Type
  3082 ;;		None
  3083 ;; Auto vars:     Size  Location     Type
  3084 ;;  i               1   16[BANK0 ] unsigned char 
  3085 ;; Return value:  Size  Location     Type
  3086 ;;                  1    wreg      void 
  3087 ;; Registers used:
  3088 ;;		wreg, fsr0l, fsr0h, status,2, status,0
  3089 ;; Tracked objects:
  3090 ;;		On entry : 200/0
  3091 ;;		On exit  : B00/0
  3092 ;;		Unchanged: 0/0
  3093 ;; Data sizes:     COMMON   BANK0   BANK1   BANK2
  3094 ;;      Params:         0       0       0       0
  3095 ;;      Locals:         0       1       0       0
  3096 ;;      Temps:          0       0       0       0
  3097 ;;      Totals:         0       1       0       0
  3098 ;;Total ram usage:        1 bytes
  3099 ;; Hardware stack levels used:    1
  3100 ;; Hardware stack levels required when called:    5
  3101 ;; This function calls:
  3102 ;;		Nothing
  3103 ;; This function is called by:
  3104 ;;		_Display_Init
  3105 ;; This function uses a non-reentrant model
  3106 ;;
  3107                           
  3108                           
  3109                           ;psect for function _Display_Clear
  3110  0FF3                     _Display_Clear:	
  3111  0FF3                     l7988:	
  3112                           ;incstack = 0
  3113                           ; Regs used in _Display_Clear: [wreg-fsr0h+status,2+status,0]
  3114                           
  3115                           
  3116                           ;Display.c: 77: uint8_t i;
  3117                           ;Display.c: 78: for(i=0; i<5; i++) {
  3118  0FF3  1283               	bcf	3,5	;RP0=0, select bank0
  3119  0FF4  01D5               	clrf	Display_Clear@i
  3120  0FF5                     l7994:	
  3121                           
  3122                           ;Display.c: 79: disp_buffer[i] = 0;
  3123  0FF5  0855               	movf	Display_Clear@i,w
  3124  0FF6  3E20               	addlw	(low (_disp_buffer| 0))& (0+255)
  3125  0FF7  0084               	movwf	4
  3126  0FF8  3005               	movlw	5
  3127  0FF9  1383               	bcf	3,7	;select IRP bank0
  3128  0FFA  0180               	clrf	0
  3129  0FFB  0AD5               	incf	Display_Clear@i,f
  3130  0FFC  0255               	subwf	Display_Clear@i,w
  3131  0FFD  1803               	btfsc	3,0
  3132  0FFE  0008               	return
  3133  0FFF  2FF5               	goto	l7994
  3134  1000                     __end_of_Display_Clear:	
  3135                           
  3136                           	psect	text25
  3137  05E9                     __ptext25:	
  3138 ;; *************** function _ISR *****************
  3139 ;; Defined at:
  3140 ;;		line 17 in file "D:\Homework\laptop\Homework\Ç¶ČëĘ˝\warmFan_finish\main.c"
  3141 ;; Parameters:    Size  Location     Type
  3142 ;;		None
  3143 ;; Auto vars:     Size  Location     Type
  3144 ;;		None
  3145 ;; Return value:  Size  Location     Type
  3146 ;;                  1    wreg      void 
  3147 ;; Registers used:
  3148 ;;		wreg, fsr0l, fsr0h, status,2, status,0, pclath, cstack
  3149 ;; Tracked objects:
  3150 ;;		On entry : 0/0
  3151 ;;		On exit  : 300/0
  3152 ;;		Unchanged: 0/0
  3153 ;; Data sizes:     COMMON   BANK0   BANK1   BANK2
  3154 ;;      Params:         0       0       0       0
  3155 ;;      Locals:         0       0       0       0
  3156 ;;      Temps:          0       4       0       0
  3157 ;;      Totals:         0       4       0       0
  3158 ;;Total ram usage:        4 bytes
  3159 ;; Hardware stack levels used:    1
  3160 ;; Hardware stack levels required when called:    4
  3161 ;; This function calls:
  3162 ;;		_Display
  3163 ;;		_PWM_Ctr_Motor
  3164 ;;		_PWM_Ctr_PTC
  3165 ;;		___CMS_CheckTouchKey
  3166 ;;		___CMS_GetTouchKeyValue
  3167 ;; This function is called by:
  3168 ;;		Interrupt level 1
  3169 ;; This function uses a non-reentrant model
  3170 ;;
  3171                           
  3172                           
  3173                           ;psect for function _ISR
  3174  05E9                     _ISR:	
  3175                           
  3176                           ;main.c: 18: if(TMR2IF) {
  3177  05E9  1C8C               	btfss	12,1	;volatile
  3178  05EA  2DFC               	goto	i1l786
  3179                           
  3180                           ;main.c: 19: TMR2IF = 0;
  3181  05EB  108C               	bcf	12,1	;volatile
  3182                           
  3183                           ;main.c: 20: tcount++;
  3184  05EC  0AC1               	incf	_tcount,f
  3185                           
  3186                           ;main.c: 21: Display();
  3187  05ED  2607  120A  118A   	fcall	_Display
  3188                           
  3189                           ;main.c: 22: PWM_Ctr_Motor();
  3190  05F0  2608  120A  118A   	fcall	_PWM_Ctr_Motor
  3191                           
  3192                           ;main.c: 23: PWM_Ctr_PTC();
  3193  05F3  2615  120A  118A   	fcall	_PWM_Ctr_PTC
  3194                           
  3195                           ;main.c: 24: __CMS_GetTouchKeyValue();
  3196  05F6  2622               	fcall	___CMS_GetTouchKeyValue
  3197                           
  3198                           ;main.c: 25: __CMS_CheckTouchKey();
  3199  05F7  120A  118A  2024  120A  118A  	fcall	___CMS_CheckTouchKey
  3200  05FC                     i1l786:	
  3201  05FC  0854               	movf	??_ISR+3,w
  3202  05FD  00FF               	movwf	127
  3203  05FE  0853               	movf	??_ISR+2,w
  3204  05FF  008A               	movwf	10
  3205  0600  0852               	movf	??_ISR+1,w
  3206  0601  0084               	movwf	4
  3207  0602  0E51               	swapf	??_ISR^0,w
  3208  0603  0083               	movwf	3
  3209  0604  0EFE               	swapf	126,f
  3210  0605  0E7E               	swapf	126,w
  3211  0606  0009               	retfie
  3212  0607                     __end_of_ISR:	
  3213  0607                     __ptext45:	
  3214 ;; *************** function _Display *****************
  3215 ;; Defined at:
  3216 ;;		line 166 in file "D:\Homework\laptop\Homework\Ç¶ČëĘ˝\warmFan_finish\Display.c"
  3217 ;; Parameters:    Size  Location     Type
  3218 ;;		None
  3219 ;; Auto vars:     Size  Location     Type
  3220 ;;		None
  3221 ;; Return value:  Size  Location     Type
  3222 ;;                  1    wreg      void 
  3223 ;; Registers used:
  3224 ;;		wreg, fsr0l, fsr0h, status,2, status,0, pclath, cstack
  3225 ;; Tracked objects:
  3226 ;;		On entry : 300/0
  3227 ;;		On exit  : 300/0
  3228 ;;		Unchanged: 0/0
  3229 ;; Data sizes:     COMMON   BANK0   BANK1   BANK2
  3230 ;;      Params:         0       0       0       0
  3231 ;;      Locals:         0       0       0       0
  3232 ;;      Temps:          0       0       0       0
  3233 ;;      Totals:         0       0       0       0
  3234 ;;Total ram usage:        0 bytes
  3235 ;; Hardware stack levels used:    1
  3236 ;; Hardware stack levels required when called:    2
  3237 ;; This function calls:
  3238 ;;		_Display_Refresh
  3239 ;; This function is called by:
  3240 ;;		_ISR
  3241 ;; This function uses a non-reentrant model
  3242 ;;
  3243                           
  3244                           
  3245                           ;psect for function _Display
  3246  0607                     _Display:	
  3247                           
  3248                           ;Display.c: 168: Display_Refresh();
  3249                           
  3250                           ;incstack = 0
  3251                           ; Regs used in _Display: [wreg-fsr0h+status,2+status,0+pclath+cstack]
  3252  0607  2ED3               	ljmp	i1l8000
  3253  0608                     __end_of_Display:	
  3254  0608                     __ptext44:	
  3255 ;; *************** function _PWM_Ctr_Motor *****************
  3256 ;; Defined at:
  3257 ;;		line 26 in file "D:\Homework\laptop\Homework\Ç¶ČëĘ˝\warmFan_finish\PWM.c"
  3258 ;; Parameters:    Size  Location     Type
  3259 ;;		None
  3260 ;; Auto vars:     Size  Location     Type
  3261 ;;		None
  3262 ;; Return value:  Size  Location     Type
  3263 ;;                  1    wreg      void 
  3264 ;; Registers used:
  3265 ;;		wreg, status,2, status,0
  3266 ;; Tracked objects:
  3267 ;;		On entry : 300/0
  3268 ;;		On exit  : 300/0
  3269 ;;		Unchanged: 0/0
  3270 ;; Data sizes:     COMMON   BANK0   BANK1   BANK2
  3271 ;;      Params:         0       0       0       0
  3272 ;;      Locals:         0       0       0       0
  3273 ;;      Temps:          0       0       0       0
  3274 ;;      Totals:         0       0       0       0
  3275 ;;Total ram usage:        0 bytes
  3276 ;; Hardware stack levels used:    1
  3277 ;; This function calls:
  3278 ;;		Nothing
  3279 ;; This function is called by:
  3280 ;;		_ISR
  3281 ;; This function uses a non-reentrant model
  3282 ;;
  3283                           
  3284                           
  3285                           ;psect for function _PWM_Ctr_Motor
  3286  0608                     _PWM_Ctr_Motor:	
  3287                           
  3288                           ;PWM.c: 28: if(++PWM_Count_Motor >= 128)
  3289                           
  3290                           ;incstack = 0
  3291                           ; Regs used in _PWM_Ctr_Motor: [wreg+status,2+status,0]
  3292  0608  3080               	movlw	128
  3293  0609  0ABA               	incf	_PWM_Count_Motor,f
  3294  060A  023A               	subwf	_PWM_Count_Motor,w
  3295  060B  1803               	btfsc	3,0
  3296                           
  3297                           ;PWM.c: 29: {
  3298                           ;PWM.c: 30: PWM_Count_Motor = 0;
  3299  060C  01BA               	clrf	_PWM_Count_Motor
  3300                           
  3301                           ;PWM.c: 31: }
  3302                           ;PWM.c: 32: if(PWM_Count_Motor < PWM_Duty_Motor)
  3303  060D  083B               	movf	_PWM_Duty_Motor,w
  3304  060E  023A               	subwf	_PWM_Count_Motor,w
  3305  060F  1803               	skipnc
  3306  0610  2E13               	goto	i1l3758
  3307                           
  3308                           ;PWM.c: 33: RA3 = 1;
  3309  0611  1585               	bsf	5,3	;volatile
  3310  0612  0008               	return
  3311  0613                     i1l3758:	
  3312                           
  3313                           ;PWM.c: 34: else
  3314                           ;PWM.c: 35: RA3 = 0;
  3315  0613  1185               	bcf	5,3	;volatile
  3316  0614  0008               	return
  3317  0615                     __end_of_PWM_Ctr_Motor:	
  3318  0615                     __ptext43:	
  3319 ;; *************** function _PWM_Ctr_PTC *****************
  3320 ;; Defined at:
  3321 ;;		line 38 in file "D:\Homework\laptop\Homework\Ç¶ČëĘ˝\warmFan_finish\PWM.c"
  3322 ;; Parameters:    Size  Location     Type
  3323 ;;		None
  3324 ;; Auto vars:     Size  Location     Type
  3325 ;;		None
  3326 ;; Return value:  Size  Location     Type
  3327 ;;                  1    wreg      void 
  3328 ;; Registers used:
  3329 ;;		wreg, status,2, status,0
  3330 ;; Tracked objects:
  3331 ;;		On entry : 300/0
  3332 ;;		On exit  : 300/0
  3333 ;;		Unchanged: 0/0
  3334 ;; Data sizes:     COMMON   BANK0   BANK1   BANK2
  3335 ;;      Params:         0       0       0       0
  3336 ;;      Locals:         0       0       0       0
  3337 ;;      Temps:          0       0       0       0
  3338 ;;      Totals:         0       0       0       0
  3339 ;;Total ram usage:        0 bytes
  3340 ;; Hardware stack levels used:    1
  3341 ;; This function calls:
  3342 ;;		Nothing
  3343 ;; This function is called by:
  3344 ;;		_ISR
  3345 ;; This function uses a non-reentrant model
  3346 ;;
  3347                           
  3348                           
  3349                           ;psect for function _PWM_Ctr_PTC
  3350  0615                     _PWM_Ctr_PTC:	
  3351                           
  3352                           ;PWM.c: 40: if(++PWM_Count_PTC >= 128)
  3353                           
  3354                           ;incstack = 0
  3355                           ; Regs used in _PWM_Ctr_PTC: [wreg+status,2+status,0]
  3356  0615  3080               	movlw	128
  3357  0616  0AB8               	incf	_PWM_Count_PTC,f
  3358  0617  0238               	subwf	_PWM_Count_PTC,w
  3359  0618  1803               	btfsc	3,0
  3360                           
  3361                           ;PWM.c: 41: {
  3362                           ;PWM.c: 42: PWM_Count_PTC = 0;
  3363  0619  01B8               	clrf	_PWM_Count_PTC
  3364                           
  3365                           ;PWM.c: 43: }
  3366                           ;PWM.c: 44: if(PWM_Count_PTC < PWM_Duty_PTC)
  3367  061A  0839               	movf	_PWM_Duty_PTC,w
  3368  061B  0238               	subwf	_PWM_Count_PTC,w
  3369  061C  1803               	skipnc
  3370  061D  2E20               	goto	i1l3764
  3371                           
  3372                           ;PWM.c: 45: RA4 = 1;
  3373  061E  1605               	bsf	5,4	;volatile
  3374  061F  0008               	return
  3375  0620                     i1l3764:	
  3376                           
  3377                           ;PWM.c: 46: else
  3378                           ;PWM.c: 47: RA4 = 0;
  3379  0620  1205               	bcf	5,4	;volatile
  3380  0621  0008               	return
  3381  0622                     __end_of_PWM_Ctr_PTC:	
  3382  0622                     __ptext26:	
  3383 ;; *************** function ___CMS_GetTouchKeyValue *****************
  3384 ;; Defined at:
  3385 ;;		line 371 in file "G:\WORK\ĽĽĘőĎŕąŘ\ĎîÄżłĚĐňżŞ·˘\´ĄĂţżâłĚĐň\´ĄĂţÔ´łĚĐň\ĐÂ´ĄĂţÔ´łĚĐň\CMS79F72x\±ę×Ľ\CÓďŃÔ\CMS_CheckTou
      +ch_PT_79F72x_V1.01(Ô´)\CMS_CheckTouch_PT_79F72x_V1.01.c"
  3386 ;; Parameters:    Size  Location     Type
  3387 ;;		None
  3388 ;; Auto vars:     Size  Location     Type
  3389 ;;		None
  3390 ;; Return value:  Size  Location     Type
  3391 ;;                  1    wreg      void 
  3392 ;; Registers used:
  3393 ;;		wreg, fsr0l, fsr0h, status,2, status,0, pclath
  3394 ;; Tracked objects:
  3395 ;;		On entry : 300/0
  3396 ;;		On exit  : 300/300
  3397 ;;		Unchanged: 0/0
  3398 ;; Data sizes:     COMMON   BANK0   BANK1   BANK2
  3399 ;;      Params:         0       0       0       0
  3400 ;;      Locals:         0       0       0       0
  3401 ;;      Temps:          0       0       0       0
  3402 ;;      Totals:         0       0       0       0
  3403 ;;Total ram usage:        0 bytes
  3404 ;; Hardware stack levels used:    2
  3405 ;; This function calls:
  3406 ;;		Nothing
  3407 ;; This function is called by:
  3408 ;;		_ISR
  3409 ;; This function uses a non-reentrant model
  3410 ;;
  3411                           
  3412                           
  3413                           ;psect for function ___CMS_GetTouchKeyValue
  3414  0622                     ___CMS_GetTouchKeyValue:	
  3415                           
  3416                           ;CMS_CheckTouch_PT_79F72x_V1.01.c: 374: RAMCTRBack = __CMS_RAMCTR;
  3417                           
  3418                           ;incstack = 0
  3419                           ; Regs used in ___CMS_GetTouchKeyValue: [wreg-fsr0h+status,2+status,0+pclath]
  3420  0622  1683               	bsf	3,5	;RP0=1, select bank3
  3421  0623  1703               	bsf	3,6	;RP1=1, select bank3
  3422  0624  081F               	movf	31,w	;volatile
  3423  0625  1283               	bcf	3,5	;RP0=0, select bank0
  3424  0626  1303               	bcf	3,6	;RP1=0, select bank0
  3425  0627  00B5               	movwf	_RAMCTRBack	;volatile
  3426                           
  3427                           ;CMS_CheckTouch_PT_79F72x_V1.01.c: 375: if(b_over1)
  3428  0628  1C5E               	btfss	_b_over1/(0+8),_b_over1& (0+7)	;volatile
  3429  0629  2ECC               	goto	i1l8496
  3430                           
  3431                           ;CMS_CheckTouch_PT_79F72x_V1.01.c: 376: {
  3432                           ;CMS_CheckTouch_PT_79F72x_V1.01.c: 377: if(!b_over0)
  3433  062A  18DE               	btfsc	_b_over0/(0+8),_b_over0& (0+7)	;volatile
  3434  062B  2E7A               	goto	i1l8456
  3435                           
  3436                           ;CMS_CheckTouch_PT_79F72x_V1.01.c: 378: {
  3437                           ;CMS_CheckTouch_PT_79F72x_V1.01.c: 379: b_over0 = 1;
  3438  062C  14DE               	bsf	_b_over0/(0+8),_b_over0& (0+7)	;volatile
  3439                           
  3440                           ;CMS_CheckTouch_PT_79F72x_V1.01.c: 380: __CMS_KEYCON0 &= ~0B00111101;
  3441  062D  30C2               	movlw	194
  3442  062E  1683               	bsf	3,5	;RP0=1, select bank3
  3443  062F  1703               	bsf	3,6	;RP1=1, select bank3
  3444  0630  0590               	andwf	16,f	;volatile
  3445                           
  3446                           ;CMS_CheckTouch_PT_79F72x_V1.01.c: 381: __CMS_KEYCON1 &= ~0B00001111;
  3447  0631  30F0               	movlw	240
  3448  0632  0591               	andwf	17,f	;volatile
  3449                           
  3450                           ;CMS_CheckTouch_PT_79F72x_V1.01.c: 382: __CMS_KEYCON1 |= (Table_KeyChannel[KeyAdrCnt] & 
      +                          0x0f);
  3451  0633  2795               	fcall	PL6	;call to abstracted procedure
  3452  0634  120A  158A  2000  120A  118A  	fcall	stringdir
  3453  0639  390F               	andlw	15
  3454  063A  1683               	bsf	3,5	;RP0=1, select bank3
  3455  063B  1703               	bsf	3,6	;RP1=1, select bank3
  3456  063C  0491               	iorwf	17,f	;volatile
  3457                           
  3458                           ;CMS_CheckTouch_PT_79F72x_V1.01.c: 383: __CMS_KEYCON2 &= ~0B00000100;
  3459  063D  1112               	bcf	18,2	;volatile
  3460                           
  3461                           ;CMS_CheckTouch_PT_79F72x_V1.01.c: 384: if(Table_KeyChannel[KeyAdrCnt] & 0x10)
  3462  063E  2795               	fcall	PL6	;call to abstracted procedure
  3463  063F  120A  158A  2000  120A  118A  	fcall	stringdir
  3464  0644  3910               	andlw	16
  3465  0645  1903               	btfsc	3,2
  3466  0646  2E4A               	goto	i1l8432
  3467                           
  3468                           ;CMS_CheckTouch_PT_79F72x_V1.01.c: 385: {
  3469                           ;CMS_CheckTouch_PT_79F72x_V1.01.c: 386: __CMS_KEYCON2 |= 0x04;
  3470  0647  1683               	bsf	3,5	;RP0=1, select bank3
  3471  0648  1703               	bsf	3,6	;RP1=1, select bank3
  3472  0649  1512               	bsf	18,2	;volatile
  3473  064A                     i1l8432:	
  3474                           
  3475                           ;CMS_CheckTouch_PT_79F72x_V1.01.c: 387: }
  3476                           ;CMS_CheckTouch_PT_79F72x_V1.01.c: 388: __CMS_RAMCTR = 0x04;;
  3477  064A  3004               	movlw	4
  3478  064B  1683               	bsf	3,5	;RP0=1, select bank3
  3479  064C  1703               	bsf	3,6	;RP1=1, select bank3
  3480  064D  009F               	movwf	31	;volatile
  3481                           
  3482                           ;CMS_CheckTouch_PT_79F72x_V1.01.c: 389: IntCurStepTemp = __CMS_CurStep[KeyAdrCnt] & 0x0f
      +                          ;
  3483  064E  1283               	bcf	3,5	;RP0=0, select bank0
  3484  064F  1303               	bcf	3,6	;RP1=0, select bank0
  3485  0650  0836               	movf	_KeyAdrCnt,w
  3486  0651  3ED0               	addlw	208
  3487  0652  0084               	movwf	4
  3488  0653  1783               	bsf	3,7	;select IRP bank3
  3489  0654  0800               	movf	0,w
  3490  0655  00B4               	movwf	_IntCurStepTemp	;volatile
  3491  0656  300F               	movlw	15
  3492  0657  05B4               	andwf	_IntCurStepTemp,f	;volatile
  3493                           
  3494                           ;CMS_CheckTouch_PT_79F72x_V1.01.c: 390: __CMS_KEYCON5 &= ~0B00001110;
  3495  0658  30F1               	movlw	241
  3496  0659  1683               	bsf	3,5	;RP0=1, select bank3
  3497  065A  1703               	bsf	3,6	;RP1=1, select bank3
  3498  065B  0595               	andwf	21,f	;volatile
  3499                           
  3500                           ;CMS_CheckTouch_PT_79F72x_V1.01.c: 391: __CMS_KEYCON5 |= __CMS_CurStep_Table[IntCurStepT
      +                          emp];
  3501  065C  1283               	bcf	3,5	;RP0=0, select bank0
  3502  065D  1303               	bcf	3,6	;RP1=0, select bank0
  3503  065E  0834               	movf	_IntCurStepTemp,w
  3504  065F  3E1B               	addlw	low ((___CMS_CurStep_Table-__stringbase)| (0+32768))
  3505  0660  0084               	movwf	4
  3506  0661  120A  158A  2000  120A  118A  	fcall	stringdir
  3507  0666  1683               	bsf	3,5	;RP0=1, select bank3
  3508  0667  1703               	bsf	3,6	;RP1=1, select bank3
  3509  0668  0495               	iorwf	21,f	;volatile
  3510                           
  3511                           ;CMS_CheckTouch_PT_79F72x_V1.01.c: 392: __CMS_RAMCTR = 0x04;;
  3512  0669  3004               	movlw	4
  3513  066A  009F               	movwf	31	;volatile
  3514                           
  3515                           ;CMS_CheckTouch_PT_79F72x_V1.01.c: 393: __CMS_KEYCON6 = ITRIM_Ram[KeyAdrCnt];
  3516  066B  278C  120A  118A   	fcall	PL4	;call to abstracted procedure
  3517  066E  0096               	movwf	22	;volatile
  3518  066F  278C  120A  118A   	fcall	PL4	;call to abstracted procedure
  3519  0672  0097               	movwf	23	;volatile
  3520                           
  3521                           ;CMS_CheckTouch_PT_79F72x_V1.01.c: 401: }
  3522                           ;CMS_CheckTouch_PT_79F72x_V1.01.c: 402: __CMS_KEYCON0 |= 0x01;
  3523                           
  3524                           ;CMS_CheckTouch_PT_79F72x_V1.01.c: 397: }
  3525  0673  1410               	bsf	16,0	;volatile
  3526                           
  3527                           ;CMS_CheckTouch_PT_79F72x_V1.01.c: 403: __CMS_RAMCTR = 0x01;;
  3528  0674  3001               	movlw	1
  3529  0675  009F               	movwf	31	;volatile
  3530                           
  3531                           ;CMS_CheckTouch_PT_79F72x_V1.01.c: 404: TimeLimit = 100;
  3532  0676  3064               	movlw	100
  3533  0677  00D6               	movwf	86	;volatile
  3534  0678  01D7               	clrf	87	;volatile
  3535                           
  3536                           ;CMS_CheckTouch_PT_79F72x_V1.01.c: 405: }
  3537  0679  2ECC               	goto	i1l8496
  3538  067A                     i1l8456:	
  3539                           
  3540                           ;CMS_CheckTouch_PT_79F72x_V1.01.c: 406: else
  3541                           ;CMS_CheckTouch_PT_79F72x_V1.01.c: 407: {
  3542                           ;CMS_CheckTouch_PT_79F72x_V1.01.c: 408: __CMS_RAMCTR = 0x01;;
  3543  067A  3001               	movlw	1
  3544  067B  1683               	bsf	3,5	;RP0=1, select bank3
  3545  067C  1703               	bsf	3,6	;RP1=1, select bank3
  3546  067D  009F               	movwf	31	;volatile
  3547                           
  3548                           ;CMS_CheckTouch_PT_79F72x_V1.01.c: 409: if(__CMS_KEYCON0 & 0x80)
  3549  067E  1F90               	btfss	16,7	;volatile
  3550  067F  2EB2               	goto	i1l6158
  3551                           
  3552                           ;CMS_CheckTouch_PT_79F72x_V1.01.c: 410: {
  3553                           ;CMS_CheckTouch_PT_79F72x_V1.01.c: 411: b_over0 = 0;
  3554  0680  1283               	bcf	3,5	;RP0=0, select bank0
  3555  0681  1303               	bcf	3,6	;RP1=0, select bank0
  3556  0682  10DE               	bcf	_b_over0/(0+8),_b_over0& (0+7)	;volatile
  3557                           
  3558                           ;CMS_CheckTouch_PT_79F72x_V1.01.c: 412: __CMS_RAMCTR = 0x01;;
  3559  0683  1683               	bsf	3,5	;RP0=1, select bank3
  3560  0684  1703               	bsf	3,6	;RP1=1, select bank3
  3561  0685  009F               	movwf	31	;volatile
  3562                           
  3563                           ;CMS_CheckTouch_PT_79F72x_V1.01.c: 413: if(CurCheckOver)
  3564  0686  1283               	bcf	3,5	;RP0=0, select bank0
  3565  0687  1303               	bcf	3,6	;RP1=0, select bank0
  3566  0688  1EDD               	btfss	_CurCheckOver/(0+8),_CurCheckOver& (0+7)	;volatile
  3567  0689  2E96               	goto	i1l8470
  3568                           
  3569                           ;CMS_CheckTouch_PT_79F72x_V1.01.c: 414: {
  3570                           ;CMS_CheckTouch_PT_79F72x_V1.01.c: 415: KeyMaxTemp = (unsigned int)(__CMS_KDMAXH << 8) |
      +                           __CMS_KDMAXL;
  3571  068A  1683               	bsf	3,5	;RP0=1, select bank3
  3572  068B  1703               	bsf	3,6	;RP1=1, select bank3
  3573  068C  081C               	movf	28,w	;volatile
  3574  068D  00D1               	movwf	81	;volatile
  3575  068E  081B               	movf	27,w	;volatile
  3576  068F  00D0               	movwf	80	;volatile
  3577                           
  3578                           ;CMS_CheckTouch_PT_79F72x_V1.01.c: 416: KeyMinTemp = (unsigned int)(__CMS_KDMINH << 8) |
      +                           __CMS_KDMINL;
  3579  0690  081A               	movf	26,w	;volatile
  3580  0691  00D3               	movwf	83	;volatile
  3581  0692  0819               	movf	25,w	;volatile
  3582  0693  00D2               	movwf	82	;volatile
  3583                           
  3584                           ;CMS_CheckTouch_PT_79F72x_V1.01.c: 428: KeySum[KeyAdrCnt] = (unsigned int)(__CMS_KDARGH 
      +                          << 8) | __CMS_KDARGL;
  3585  0694  1283               	bcf	3,5	;RP0=0, select bank0
  3586  0695  1303               	bcf	3,6	;RP1=0, select bank0
  3587  0696                     i1l8470:	
  3588                           ;CMS_CheckTouch_PT_79F72x_V1.01.c: 429: }
  3589                           
  3590                           
  3591                           ;CMS_CheckTouch_PT_79F72x_V1.01.c: 430: else
  3592                           ;CMS_CheckTouch_PT_79F72x_V1.01.c: 431: {
  3593                           ;CMS_CheckTouch_PT_79F72x_V1.01.c: 432: KeySum[KeyAdrCnt] = (unsigned int)(__CMS_KDARGH 
      +                          << 8) | __CMS_KDARGL;
  3594  0696  1003               	clrc
  3595  0697  0D36               	rlf	_KeyAdrCnt,w	;volatile
  3596  0698  3EA0               	addlw	160
  3597  0699  0084               	movwf	4
  3598  069A  1683               	bsf	3,5	;RP0=1, select bank3
  3599  069B  1703               	bsf	3,6	;RP1=1, select bank3
  3600  069C  081D               	movf	29,w	;volatile
  3601  069D  1783               	bsf	3,7	;select IRP bank3
  3602  069E  0080               	movwf	0
  3603  069F  0A84               	incf	4,f
  3604  06A0  081E               	movf	30,w	;volatile
  3605  06A1  0080               	movwf	0
  3606                           
  3607                           ;CMS_CheckTouch_PT_79F72x_V1.01.c: 433: }
  3608                           ;CMS_CheckTouch_PT_79F72x_V1.01.c: 434: __CMS_KEYCON0 &= ~0B00000101;
  3609  06A2  30FA               	movlw	250
  3610  06A3  0590               	andwf	16,f	;volatile
  3611  06A4  3004               	movlw	4
  3612  06A5  1283               	bcf	3,5	;RP0=0, select bank0
  3613  06A6  1303               	bcf	3,6	;RP1=0, select bank0
  3614  06A7  0AB6               	incf	_KeyAdrCnt,f	;volatile
  3615  06A8  0236               	subwf	_KeyAdrCnt,w	;volatile
  3616  06A9  1C03               	skipc
  3617  06AA  2ECC               	goto	i1l8496
  3618                           
  3619                           ;CMS_CheckTouch_PT_79F72x_V1.01.c: 436: {
  3620                           ;CMS_CheckTouch_PT_79F72x_V1.01.c: 437: b_over1 = 0;
  3621  06AB  105E               	bcf	_b_over1/(0+8),_b_over1& (0+7)	;volatile
  3622                           
  3623                           ;CMS_CheckTouch_PT_79F72x_V1.01.c: 438: KeyAdrCnt = 0;
  3624  06AC  01B6               	clrf	_KeyAdrCnt	;volatile
  3625                           
  3626                           ;CMS_CheckTouch_PT_79F72x_V1.01.c: 439: __CMS_KEYCON2 &= ~0B00000001;
  3627  06AD  1683               	bsf	3,5	;RP0=1, select bank3
  3628  06AE  1703               	bsf	3,6	;RP1=1, select bank3
  3629  06AF  1012               	bcf	18,0	;volatile
  3630                           
  3631                           ;CMS_CheckTouch_PT_79F72x_V1.01.c: 440: __CMS_KEYCON3 &= ~0B10000000;
  3632  06B0  1393               	bcf	19,7	;volatile
  3633  06B1  2ECC               	goto	i1l8496
  3634  06B2                     i1l6158:	
  3635                           
  3636                           ;CMS_CheckTouch_PT_79F72x_V1.01.c: 443: else if((__CMS_KEYCON0 & 0x04) || (0 == (--TimeL
      +                          imit)))
  3637  06B2  1910               	btfsc	16,2	;volatile
  3638  06B3  2EBE               	goto	i1l6165
  3639  06B4  3001               	movlw	1
  3640  06B5  02D6               	subwf	86,f	;volatile
  3641  06B6  3000               	movlw	0
  3642  06B7  1C03               	skipc
  3643  06B8  03D7               	decf	87,f	;volatile
  3644  06B9  02D7               	subwf	87,f	;volatile
  3645  06BA  0856               	movf	86,w	;volatile
  3646  06BB  0457               	iorwf	87,w	;volatile
  3647  06BC  1D03               	btfss	3,2
  3648  06BD  2ECC               	goto	i1l8496
  3649  06BE                     i1l6165:	
  3650                           
  3651                           ;CMS_CheckTouch_PT_79F72x_V1.01.c: 444: {
  3652                           ;CMS_CheckTouch_PT_79F72x_V1.01.c: 445: b_over0 = 0;
  3653  06BE  1283               	bcf	3,5	;RP0=0, select bank0
  3654  06BF  1303               	bcf	3,6	;RP1=0, select bank0
  3655  06C0  10DE               	bcf	_b_over0/(0+8),_b_over0& (0+7)	;volatile
  3656                           
  3657                           ;CMS_CheckTouch_PT_79F72x_V1.01.c: 446: b_over1 = 0;
  3658  06C1  105E               	bcf	_b_over1/(0+8),_b_over1& (0+7)	;volatile
  3659                           
  3660                           ;CMS_CheckTouch_PT_79F72x_V1.01.c: 447: KeyAdrCnt = 0;
  3661  06C2  01B6               	clrf	_KeyAdrCnt	;volatile
  3662                           
  3663                           ;CMS_CheckTouch_PT_79F72x_V1.01.c: 448: __CMS_KEYCON0 &= ~0B00000101;
  3664  06C3  30FA               	movlw	250
  3665  06C4  1683               	bsf	3,5	;RP0=1, select bank3
  3666  06C5  1703               	bsf	3,6	;RP1=1, select bank3
  3667  06C6  0590               	andwf	16,f	;volatile
  3668                           
  3669                           ;CMS_CheckTouch_PT_79F72x_V1.01.c: 449: __CMS_KEYCON2 &= ~0B00000001;
  3670  06C7  1012               	bcf	18,0	;volatile
  3671                           
  3672                           ;CMS_CheckTouch_PT_79F72x_V1.01.c: 450: __CMS_KEYCON3 &= ~0B10000000;
  3673  06C8  1393               	bcf	19,7	;volatile
  3674                           
  3675                           ;CMS_CheckTouch_PT_79F72x_V1.01.c: 451: b_onceerr = 1;
  3676  06C9  1283               	bcf	3,5	;RP0=0, select bank0
  3677  06CA  1303               	bcf	3,6	;RP1=0, select bank0
  3678  06CB  175D               	bsf	_b_onceerr/(0+8),_b_onceerr& (0+7)	;volatile
  3679  06CC                     i1l8496:	
  3680                           
  3681                           ;CMS_CheckTouch_PT_79F72x_V1.01.c: 452: }
  3682                           ;CMS_CheckTouch_PT_79F72x_V1.01.c: 453: }
  3683                           ;CMS_CheckTouch_PT_79F72x_V1.01.c: 454: }
  3684                           ;CMS_CheckTouch_PT_79F72x_V1.01.c: 455: __CMS_RAMCTR = RAMCTRBack;
  3685  06CC  1283               	bcf	3,5	;RP0=0, select bank0
  3686  06CD  1303               	bcf	3,6	;RP1=0, select bank0
  3687  06CE  0835               	movf	_RAMCTRBack,w	;volatile
  3688  06CF  1683               	bsf	3,5	;RP0=1, select bank3
  3689  06D0  1703               	bsf	3,6	;RP1=1, select bank3
  3690  06D1  009F               	movwf	31	;volatile
  3691  06D2  0008               	return
  3692  06D3                     __end_of___CMS_GetTouchKeyValue:	
  3693  06D3                     __ptext46:	
  3694 ;; *************** function _Display_Refresh *****************
  3695 ;; Defined at:
  3696 ;;		line 96 in file "D:\Homework\laptop\Homework\Ç¶ČëĘ˝\warmFan_finish\Display.c"
  3697 ;; Parameters:    Size  Location     Type
  3698 ;;		None
  3699 ;; Auto vars:     Size  Location     Type
  3700 ;;  i               1    5[COMMON] unsigned char 
  3701 ;;  current_src     1    4[COMMON] unsigned char 
  3702 ;;  sinks           1    3[COMMON] unsigned char 
  3703 ;; Return value:  Size  Location     Type
  3704 ;;                  1    wreg      void 
  3705 ;; Registers used:
  3706 ;;		wreg, fsr0l, fsr0h, status,2, status,0, pclath, cstack
  3707 ;; Tracked objects:
  3708 ;;		On entry : 300/0
  3709 ;;		On exit  : 300/0
  3710 ;;		Unchanged: 0/0
  3711 ;; Data sizes:     COMMON   BANK0   BANK1   BANK2
  3712 ;;      Params:         0       0       0       0
  3713 ;;      Locals:         3       0       0       0
  3714 ;;      Temps:          1       0       0       0
  3715 ;;      Totals:         4       0       0       0
  3716 ;;Total ram usage:        4 bytes
  3717 ;; Hardware stack levels used:    1
  3718 ;; Hardware stack levels required when called:    1
  3719 ;; This function calls:
  3720 ;;		i1_SetPin
  3721 ;; This function is called by:
  3722 ;;		_Display
  3723 ;; This function uses a non-reentrant model
  3724 ;;
  3725                           
  3726                           
  3727                           ;psect for function _Display_Refresh
  3728  06D3                     _Display_Refresh:	
  3729  06D3                     i1l8000:	
  3730                           ;incstack = 0
  3731                           ; Regs used in _Display_Refresh: [wreg-fsr0h+status,2+status,0+pclath+cstack]
  3732                           
  3733  06D3  3000               	movlw	0
  3734                           
  3735                           ;Display.c: 97: uint8_t i;
  3736                           ;Display.c: 99: SetPin(0, 0); SetPin(1, 0); SetPin(2, 0); SetPin(3, 0); SetPin(4, 0);
  3737  06D4  01F0               	clrf	i1SetPin@mode
  3738  06D5  271E  120A  118A   	fcall	i1_SetPin
  3739  06D8  3001               	movlw	1
  3740  06D9  01F0               	clrf	i1SetPin@mode
  3741  06DA  271E  120A  118A   	fcall	i1_SetPin
  3742  06DD  3002               	movlw	2
  3743  06DE  01F0               	clrf	i1SetPin@mode
  3744  06DF  271E  120A  118A   	fcall	i1_SetPin
  3745  06E2  3003               	movlw	3
  3746  06E3  01F0               	clrf	i1SetPin@mode
  3747  06E4  271E  120A  118A   	fcall	i1_SetPin
  3748  06E7  3004               	movlw	4
  3749  06E8  01F0               	clrf	i1SetPin@mode
  3750  06E9  271E  120A  118A   	fcall	i1_SetPin
  3751                           
  3752                           ;Display.c: 102: uint8_t current_src = scan_idx;
  3753  06EC  1283               	bcf	3,5	;RP0=0, select bank0
  3754  06ED  1303               	bcf	3,6	;RP1=0, select bank0
  3755  06EE  0837               	movf	_scan_idx,w
  3756  06EF  00F4               	movwf	Display_Refresh@current_src
  3757                           
  3758                           ;Display.c: 103: uint8_t sinks = disp_buffer[current_src];
  3759  06F0  3E20               	addlw	(low (_disp_buffer| 0))& (0+255)
  3760  06F1  0084               	movwf	4
  3761  06F2  1383               	bcf	3,7	;select IRP bank0
  3762  06F3  0800               	movf	0,w
  3763  06F4  00F3               	movwf	Display_Refresh@sinks
  3764                           
  3765                           ;Display.c: 106: for(i=0; i<5; i++) {
  3766  06F5  01F5               	clrf	Display_Refresh@i
  3767  06F6                     i1l8012:	
  3768                           
  3769                           ;Display.c: 107: if(i == current_src) continue;
  3770  06F6  0875               	movf	Display_Refresh@i,w
  3771  06F7  0674               	xorwf	Display_Refresh@current_src,w
  3772  06F8  1903               	btfsc	3,2
  3773  06F9  2F0D               	goto	i1l8020
  3774                           
  3775                           ;Display.c: 108: if(sinks & (1 << i)) {
  3776  06FA  3001               	movlw	1
  3777  06FB  00F2               	movwf	??_Display_Refresh
  3778  06FC  0A75               	incf	Display_Refresh@i,w
  3779  06FD  2F00               	goto	u173_24
  3780  06FE                     u173_25:	
  3781  06FE  1003               	clrc
  3782  06FF  0DF2               	rlf	??_Display_Refresh,f
  3783  0700                     u173_24:	
  3784  0700  3EFF               	addlw	-1
  3785  0701  1D03               	skipz
  3786  0702  2EFE               	goto	u173_25
  3787  0703  0872               	movf	??_Display_Refresh,w
  3788  0704  0573               	andwf	Display_Refresh@sinks,w
  3789  0705  1903               	btfsc	3,2
  3790  0706  2F0D               	goto	i1l8020
  3791                           
  3792                           ;Display.c: 109: SetPin(i, 2);
  3793  0707  3002               	movlw	2
  3794  0708  00F0               	movwf	i1SetPin@mode
  3795  0709  0875               	movf	Display_Refresh@i,w
  3796  070A  271E  120A  118A   	fcall	i1_SetPin
  3797  070D                     i1l8020:	
  3798  070D  3005               	movlw	5
  3799  070E  0AF5               	incf	Display_Refresh@i,f
  3800  070F  0275               	subwf	Display_Refresh@i,w
  3801  0710  1C03               	skipc
  3802  0711  2EF6               	goto	i1l8012
  3803                           
  3804                           ;Display.c: 110: }
  3805                           ;Display.c: 111: }
  3806                           ;Display.c: 114: SetPin(current_src, 1);
  3807  0712  01F0               	clrf	i1SetPin@mode
  3808  0713  0AF0               	incf	i1SetPin@mode,f
  3809  0714  0874               	movf	Display_Refresh@current_src,w
  3810  0715  271E               	fcall	i1_SetPin
  3811                           
  3812                           ;Display.c: 117: scan_idx++;
  3813  0716  1283               	bcf	3,5	;RP0=0, select bank0
  3814  0717  1303               	bcf	3,6	;RP1=0, select bank0
  3815  0718  3005               	movlw	5
  3816  0719  0AB7               	incf	_scan_idx,f
  3817                           
  3818                           ;Display.c: 118: if (scan_idx >= 5) scan_idx = 0;
  3819  071A  0237               	subwf	_scan_idx,w
  3820  071B  1803               	btfsc	3,0
  3821  071C  01B7               	clrf	_scan_idx
  3822  071D  0008               	return
  3823  071E                     __end_of_Display_Refresh:	
  3824  071E                     __ptext47:	
  3825 ;; *************** function i1_SetPin *****************
  3826 ;; Defined at:
  3827 ;;		line 33 in file "D:\Homework\laptop\Homework\Ç¶ČëĘ˝\warmFan_finish\Display.c"
  3828 ;; Parameters:    Size  Location     Type
  3829 ;;  pin_idx         1    wreg     unsigned char 
  3830 ;;  mode            1    0[COMMON] unsigned char 
  3831 ;; Auto vars:     Size  Location     Type
  3832 ;;  pin_idx         1    1[COMMON] unsigned char 
  3833 ;; Return value:  Size  Location     Type
  3834 ;;                  1    wreg      void 
  3835 ;; Registers used:
  3836 ;;		wreg, fsr0l, fsr0h, status,2, status,0
  3837 ;; Tracked objects:
  3838 ;;		On entry : 0/0
  3839 ;;		On exit  : 0/0
  3840 ;;		Unchanged: 0/0
  3841 ;; Data sizes:     COMMON   BANK0   BANK1   BANK2
  3842 ;;      Params:         1       0       0       0
  3843 ;;      Locals:         1       0       0       0
  3844 ;;      Temps:          0       0       0       0
  3845 ;;      Totals:         2       0       0       0
  3846 ;;Total ram usage:        2 bytes
  3847 ;; Hardware stack levels used:    1
  3848 ;; This function calls:
  3849 ;;		Nothing
  3850 ;; This function is called by:
  3851 ;;		_Display_Refresh
  3852 ;; This function uses a non-reentrant model
  3853 ;;
  3854                           
  3855                           
  3856                           ;psect for function i1_SetPin
  3857  071E                     i1_SetPin:	
  3858                           
  3859                           ;incstack = 0
  3860                           ; Regs used in i1_SetPin: [wreg-fsr0h+status,2+status,0]
  3861                           ;i1SetPin@pin_idx stored from wreg
  3862  071E  00F1               	movwf	i1SetPin@pin_idx
  3863                           
  3864                           ;Display.c: 40: switch (pin_idx) {
  3865  071F  2F7A               	goto	i1l7916
  3866  0720                     i1l7874:	
  3867                           
  3868                           ;Display.c: 42: if (mode == 0) TRISA |= (1<<0);
  3869  0720  0870               	movf	i1SetPin@mode,w
  3870  0721  1D03               	btfss	3,2
  3871  0722  2F27               	goto	i1l5901
  3872  0723  1683               	bsf	3,5	;RP0=1, select bank1
  3873  0724  1303               	bcf	3,6	;RP1=0, select bank1
  3874  0725  1405               	bsf	5,0	;volatile
  3875  0726  0008               	return
  3876  0727                     i1l5901:	
  3877                           
  3878                           ;Display.c: 43: else { TRISA &= ~(1<<0); if(mode==1) PORTA |= (1<<0); else PORTA &= ~(1<
      +                          <0); }
  3879  0727  1683               	bsf	3,5	;RP0=1, select bank1
  3880  0728  1303               	bcf	3,6	;RP1=0, select bank1
  3881  0729  1005               	bcf	5,0	;volatile
  3882  072A  0B70               	decfsz	i1SetPin@mode,w
  3883  072B  2F2F               	goto	i1l5903
  3884  072C  1283               	bcf	3,5	;RP0=0, select bank0
  3885  072D  1405               	bsf	5,0	;volatile
  3886  072E  0008               	return
  3887  072F                     i1l5903:	
  3888  072F  1283               	bcf	3,5	;RP0=0, select bank0
  3889  0730  1005               	bcf	5,0	;volatile
  3890  0731  0008               	return
  3891  0732                     i1l7882:	
  3892                           
  3893                           ;Display.c: 46: if (mode == 0) TRISA |= (1<<1);
  3894  0732  0870               	movf	i1SetPin@mode,w
  3895  0733  1D03               	btfss	3,2
  3896  0734  2F39               	goto	i1l5907
  3897  0735  1683               	bsf	3,5	;RP0=1, select bank1
  3898  0736  1303               	bcf	3,6	;RP1=0, select bank1
  3899  0737  1485               	bsf	5,1	;volatile
  3900  0738  0008               	return
  3901  0739                     i1l5907:	
  3902                           
  3903                           ;Display.c: 47: else { TRISA &= ~(1<<1); if(mode==1) PORTA |= (1<<1); else PORTA &= ~(1<
      +                          <1); }
  3904  0739  1683               	bsf	3,5	;RP0=1, select bank1
  3905  073A  1303               	bcf	3,6	;RP1=0, select bank1
  3906  073B  1085               	bcf	5,1	;volatile
  3907  073C  0B70               	decfsz	i1SetPin@mode,w
  3908  073D  2F41               	goto	i1l5909
  3909  073E  1283               	bcf	3,5	;RP0=0, select bank0
  3910  073F  1485               	bsf	5,1	;volatile
  3911  0740  0008               	return
  3912  0741                     i1l5909:	
  3913  0741  1283               	bcf	3,5	;RP0=0, select bank0
  3914  0742  1085               	bcf	5,1	;volatile
  3915  0743  0008               	return
  3916  0744                     i1l7890:	
  3917                           
  3918                           ;Display.c: 50: if (mode == 0) TRISA |= (1<<2);
  3919  0744  0870               	movf	i1SetPin@mode,w
  3920  0745  1D03               	btfss	3,2
  3921  0746  2F4B               	goto	i1l5912
  3922  0747  1683               	bsf	3,5	;RP0=1, select bank1
  3923  0748  1303               	bcf	3,6	;RP1=0, select bank1
  3924  0749  1505               	bsf	5,2	;volatile
  3925  074A  0008               	return
  3926  074B                     i1l5912:	
  3927                           
  3928                           ;Display.c: 51: else { TRISA &= ~(1<<2); if(mode==1) PORTA |= (1<<2); else PORTA &= ~(1<
      +                          <2); }
  3929  074B  1683               	bsf	3,5	;RP0=1, select bank1
  3930  074C  1303               	bcf	3,6	;RP1=0, select bank1
  3931  074D  1105               	bcf	5,2	;volatile
  3932  074E  0B70               	decfsz	i1SetPin@mode,w
  3933  074F  2F53               	goto	i1l5914
  3934  0750  1283               	bcf	3,5	;RP0=0, select bank0
  3935  0751  1505               	bsf	5,2	;volatile
  3936  0752  0008               	return
  3937  0753                     i1l5914:	
  3938  0753  1283               	bcf	3,5	;RP0=0, select bank0
  3939  0754  1105               	bcf	5,2	;volatile
  3940  0755  0008               	return
  3941  0756                     i1l7898:	
  3942                           
  3943                           ;Display.c: 54: if (mode == 0) TRISB |= (1<<4);
  3944  0756  0870               	movf	i1SetPin@mode,w
  3945  0757  1D03               	btfss	3,2
  3946  0758  2F5D               	goto	i1l5917
  3947  0759  1683               	bsf	3,5	;RP0=1, select bank1
  3948  075A  1303               	bcf	3,6	;RP1=0, select bank1
  3949  075B  1606               	bsf	6,4	;volatile
  3950  075C  0008               	return
  3951  075D                     i1l5917:	
  3952                           
  3953                           ;Display.c: 55: else { TRISB &= ~(1<<4); if(mode==1) PORTB |= (1<<4); else PORTB &= ~(1<
      +                          <4); }
  3954  075D  1683               	bsf	3,5	;RP0=1, select bank1
  3955  075E  1303               	bcf	3,6	;RP1=0, select bank1
  3956  075F  1206               	bcf	6,4	;volatile
  3957  0760  0B70               	decfsz	i1SetPin@mode,w
  3958  0761  2F65               	goto	i1l5919
  3959  0762  1283               	bcf	3,5	;RP0=0, select bank0
  3960  0763  1606               	bsf	6,4	;volatile
  3961  0764  0008               	return
  3962  0765                     i1l5919:	
  3963  0765  1283               	bcf	3,5	;RP0=0, select bank0
  3964  0766  1206               	bcf	6,4	;volatile
  3965  0767  0008               	return
  3966  0768                     i1l7906:	
  3967                           
  3968                           ;Display.c: 58: if (mode == 0) TRISB |= (1<<5);
  3969  0768  0870               	movf	i1SetPin@mode,w
  3970  0769  1D03               	btfss	3,2
  3971  076A  2F6F               	goto	i1l5922
  3972  076B  1683               	bsf	3,5	;RP0=1, select bank1
  3973  076C  1303               	bcf	3,6	;RP1=0, select bank1
  3974  076D  1686               	bsf	6,5	;volatile
  3975  076E  0008               	return
  3976  076F                     i1l5922:	
  3977                           
  3978                           ;Display.c: 59: else { TRISB &= ~(1<<5); if(mode==1) PORTB |= (1<<5); else PORTB &= ~(1<
      +                          <5); }
  3979  076F  1683               	bsf	3,5	;RP0=1, select bank1
  3980  0770  1303               	bcf	3,6	;RP1=0, select bank1
  3981  0771  1286               	bcf	6,5	;volatile
  3982  0772  0B70               	decfsz	i1SetPin@mode,w
  3983  0773  2F77               	goto	i1l5924
  3984  0774  1283               	bcf	3,5	;RP0=0, select bank0
  3985  0775  1686               	bsf	6,5	;volatile
  3986  0776  0008               	return
  3987  0777                     i1l5924:	
  3988  0777  1283               	bcf	3,5	;RP0=0, select bank0
  3989  0778  1286               	bcf	6,5	;volatile
  3990  0779  0008               	return
  3991  077A                     i1l7916:	
  3992  077A  0871               	movf	i1SetPin@pin_idx,w
  3993                           
  3994                           ; Switch size 1, requested type "space"
  3995                           ; Number of cases is 5, Range of values is 0 to 4
  3996                           ; switch strategies available:
  3997                           ; Name         Instructions Cycles
  3998                           ; simple_byte           16     9 (average)
  3999                           ; direct_byte           23     8 (fixed)
  4000                           ; jumptable            260     6 (fixed)
  4001                           ;	Chosen strategy is simple_byte
  4002  077B  3A00               	xorlw	0	; case 0
  4003  077C  1903               	skipnz
  4004  077D  2F20               	goto	i1l7874
  4005  077E  3A01               	xorlw	1	; case 1
  4006  077F  1903               	skipnz
  4007  0780  2F32               	goto	i1l7882
  4008  0781  3A03               	xorlw	3	; case 2
  4009  0782  1903               	skipnz
  4010  0783  2F44               	goto	i1l7890
  4011  0784  3A01               	xorlw	1	; case 3
  4012  0785  1903               	skipnz
  4013  0786  2F56               	goto	i1l7898
  4014  0787  3A07               	xorlw	7	; case 4
  4015  0788  1903               	skipnz
  4016  0789  2F68               	goto	i1l7906
  4017  078A  2F8B               	goto	i1l5926
  4018  078B                     i1l5926:	
  4019  078B  0008               	return
  4020  078C                     __end_ofi1_SetPin:	
  4021  007E                     btemp	set	126	;btemp
  4022  007E                     wtemp0	set	126
  4023  078C                     PL4:	
  4024  078C  1283               	bcf	3,5	;RP0=0, select bank0
  4025  078D  1303               	bcf	3,6	;RP1=0, select bank0
  4026  078E  0836               	movf	_KeyAdrCnt,w
  4027  078F  3EA0               	addlw	160
  4028  0790  0084               	movwf	4
  4029  0791  0800               	movf	0,w
  4030  0792  1683               	bsf	3,5	;RP0=1, select bank3
  4031  0793  1703               	bsf	3,6	;RP1=1, select bank3
  4032  0794  0008               	return
  4033  0795                     __end_ofPL4:	
  4034  0795                     PL6:	
  4035  0795  1283               	bcf	3,5	;RP0=0, select bank0
  4036  0796  1303               	bcf	3,6	;RP1=0, select bank0
  4037  0797  0836               	movf	_KeyAdrCnt,w
  4038  0798  3E29               	addlw	low ((_Table_KeyChannel-__stringbase)| (0+32768))
  4039  0799  0084               	movwf	4
  4040  079A  0008               	return
  4041  079B                     __end_ofPL6:	
  4042                           
  4043                           	psect	intentry
  4044  0004                     __pintentry:	
  4045                           ;incstack = 0
  4046 ;; hardware stack exceeded
  4047                           ; Regs used in _ISR: [wreg-fsr0h+status,2+status,0+pclath+cstack]
  4048                           
  4049  0004                     interrupt_function:	
  4050  007E                     saved_w	set	btemp
  4051  0004  00FE               	movwf	btemp
  4052  0005  0E03               	swapf	3,w
  4053  0006  1283               	bcf	3,5	;RP0=0, select bank0
  4054  0007  1303               	bcf	3,6	;RP1=0, select bank0
  4055  0008  00D1               	movwf	??_ISR
  4056  0009  0804               	movf	4,w
  4057  000A  00D2               	movwf	??_ISR+1
  4058  000B  080A               	movf	10,w
  4059  000C  00D3               	movwf	??_ISR+2
  4060  000D  087F               	movf	btemp+1,w
  4061  000E  00D4               	movwf	??_ISR+3
  4062  000F  120A  118A  2DE9   	ljmp	_ISR
  4063                           
  4064                           	psect	text27
  4065  0024                     __ptext27:	
  4066 ;; *************** function ___CMS_CheckTouchKey *****************
  4067 ;; Defined at:
  4068 ;;		line 895 in file "G:\WORK\ĽĽĘőĎŕąŘ\ĎîÄżłĚĐňżŞ·˘\´ĄĂţżâłĚĐň\´ĄĂţÔ´łĚĐň\ĐÂ´ĄĂţÔ´łĚĐň\CMS79F72x\±ę×Ľ\CÓďŃÔ\CMS_CheckTou
      +ch_PT_79F72x_V1.01(Ô´)\CMS_CheckTouch_PT_79F72x_V1.01.c"
  4069 ;; Parameters:    Size  Location     Type
  4070 ;;		None
  4071 ;; Auto vars:     Size  Location     Type
  4072 ;;		None
  4073 ;; Return value:  Size  Location     Type
  4074 ;;                  1    wreg      void 
  4075 ;; Registers used:
  4076 ;;		wreg, fsr0l, fsr0h, status,2, status,0, pclath, cstack
  4077 ;; Tracked objects:
  4078 ;;		On entry : 300/300
  4079 ;;		On exit  : 300/0
  4080 ;;		Unchanged: 0/0
  4081 ;; Data sizes:     COMMON   BANK0   BANK1   BANK2
  4082 ;;      Params:         0       0       0       0
  4083 ;;      Locals:         0       0       0       0
  4084 ;;      Temps:          0       0       0       0
  4085 ;;      Totals:         0       0       0       0
  4086 ;;Total ram usage:        0 bytes
  4087 ;; Hardware stack levels used:    1
  4088 ;; Hardware stack levels required when called:    3
  4089 ;; This function calls:
  4090 ;;		___CMS_CheckKeyOldValue
  4091 ;;		___CMS_CheckOnceResult
  4092 ;;		___CMS_CheckValidTime
  4093 ;;		___CMS_CurAdjust
  4094 ;;		___CMS_KeyDatIIR
  4095 ;;		___CMS_KeyModeSet
  4096 ;;		___CMS_KeyStopClear
  4097 ;;		___CMS_Key_UNNOL_Check
  4098 ;;		___CMS_NewRAMClr
  4099 ;;		___GET_32M_FREDAT
  4100 ;; This function is called by:
  4101 ;;		_ISR
  4102 ;; This function uses a non-reentrant model
  4103 ;;
  4104                           
  4105                           
  4106                           ;psect for function ___CMS_CheckTouchKey
  4107  0024                     ___CMS_CheckTouchKey:	
  4108                           
  4109                           ;CMS_CheckTouch_PT_79F72x_V1.01.c: 897: static bit SDfst = 0;
  4110                           ;CMS_CheckTouch_PT_79F72x_V1.01.c: 899: if(CurCheckOver)
  4111                           
  4112                           ;incstack = 0
  4113 ;; hardware stack exceeded
  4114                           ; Regs used in ___CMS_CheckTouchKey: [wreg-fsr0h+status,2+status,0+pclath+cstack]
  4115  0024  1283               	bcf	3,5	;RP0=0, select bank0
  4116  0025  1303               	bcf	3,6	;RP1=0, select bank0
  4117  0026  1EDD               	btfss	_CurCheckOver/(0+8),_CurCheckOver& (0+7)	;volatile
  4118  0027  2861               	goto	i1l6283
  4119                           
  4120                           ;CMS_CheckTouch_PT_79F72x_V1.01.c: 900: {
  4121                           ;CMS_CheckTouch_PT_79F72x_V1.01.c: 901: if(!b_over1)
  4122  0028  185E               	btfsc	_b_over1/(0+8),_b_over1& (0+7)	;volatile
  4123  0029  2871               	goto	i1l6292
  4124                           
  4125                           ;CMS_CheckTouch_PT_79F72x_V1.01.c: 902: {
  4126                           ;CMS_CheckTouch_PT_79F72x_V1.01.c: 903: if(!b_onceerr)
  4127  002A  1B5D               	btfsc	_b_onceerr/(0+8),_b_onceerr& (0+7)	;volatile
  4128  002B  285F               	goto	i1l6285
  4129                           
  4130                           ;CMS_CheckTouch_PT_79F72x_V1.01.c: 904: {
  4131                           ;CMS_CheckTouch_PT_79F72x_V1.01.c: 905: if(!b_over2)
  4132  002C  1BDD               	btfsc	_b_over2/(0+8),_b_over2& (0+7)	;volatile
  4133  002D  2839               	goto	i1l8510
  4134                           
  4135                           ;CMS_CheckTouch_PT_79F72x_V1.01.c: 906: {
  4136                           ;CMS_CheckTouch_PT_79F72x_V1.01.c: 907: b_over2 = 1;
  4137  002E  17DD               	bsf	_b_over2/(0+8),_b_over2& (0+7)	;volatile
  4138                           
  4139                           ;CMS_CheckTouch_PT_79F72x_V1.01.c: 908: __CMS_KeyDatIIR();
  4140  002F  231D  120A  118A   	fcall	___CMS_KeyDatIIR
  4141                           
  4142                           ;CMS_CheckTouch_PT_79F72x_V1.01.c: 909: __CMS_CheckKeyOldValue();
  4143  0032  2072  120A  118A   	fcall	___CMS_CheckKeyOldValue
  4144                           
  4145                           ;CMS_CheckTouch_PT_79F72x_V1.01.c: 910: __CMS_Key_UNNOL_Check();
  4146  0035  2399  120A  118A   	fcall	___CMS_Key_UNNOL_Check
  4147                           
  4148                           ;CMS_CheckTouch_PT_79F72x_V1.01.c: 911: }
  4149  0038  2871               	goto	i1l6292
  4150  0039                     i1l8510:	
  4151                           
  4152                           ;CMS_CheckTouch_PT_79F72x_V1.01.c: 912: else
  4153                           ;CMS_CheckTouch_PT_79F72x_V1.01.c: 913: {
  4154                           ;CMS_CheckTouch_PT_79F72x_V1.01.c: 914: __CMS_CheckOnceResult();
  4155  0039  2122  120A  118A   	fcall	___CMS_CheckOnceResult
  4156                           
  4157                           ;CMS_CheckTouch_PT_79F72x_V1.01.c: 915: __CMS_RAMCTR = 0x04;;
  4158  003C  3004               	movlw	4
  4159  003D  1683               	bsf	3,5	;RP0=1, select bank3
  4160  003E  1703               	bsf	3,6	;RP1=1, select bank3
  4161  003F  009F               	movwf	31	;volatile
  4162                           
  4163                           ;CMS_CheckTouch_PT_79F72x_V1.01.c: 916: if(b_kerr || KeyCounter > KeyValidNumber)
  4164  0040  1283               	bcf	3,5	;RP0=0, select bank0
  4165  0041  1303               	bcf	3,6	;RP1=0, select bank0
  4166  0042  19DD               	btfsc	_b_kerr/(0+8),_b_kerr& (0+7)	;volatile
  4167  0043  284A               	goto	i1l8518
  4168  0044  3005               	movlw	5
  4169  0045  1683               	bsf	3,5	;RP0=1, select bank3
  4170  0046  1703               	bsf	3,6	;RP1=1, select bank3
  4171  0047  0264               	subwf	100,w	;volatile
  4172  0048  1C03               	skipc
  4173  0049  2850               	goto	i1l8522
  4174  004A                     i1l8518:	
  4175                           
  4176                           ;CMS_CheckTouch_PT_79F72x_V1.01.c: 917: {
  4177                           ;CMS_CheckTouch_PT_79F72x_V1.01.c: 918: __CMS_KeyStopClear();
  4178  004A  238A  120A  118A   	fcall	___CMS_KeyStopClear
  4179                           
  4180                           ;CMS_CheckTouch_PT_79F72x_V1.01.c: 919: b_kerr = 0;
  4181  004D  1283               	bcf	3,5	;RP0=0, select bank0
  4182  004E  1303               	bcf	3,6	;RP1=0, select bank0
  4183  004F  11DD               	bcf	_b_kerr/(0+8),_b_kerr& (0+7)	;volatile
  4184  0050                     i1l8522:	
  4185                           
  4186                           ;CMS_CheckTouch_PT_79F72x_V1.01.c: 920: }
  4187                           ;CMS_CheckTouch_PT_79F72x_V1.01.c: 921: __CMS_RAMCTR = 0x04;;
  4188  0050  3004               	movlw	4
  4189  0051  1683               	bsf	3,5	;RP0=1, select bank3
  4190  0052  1703               	bsf	3,6	;RP1=1, select bank3
  4191  0053  009F               	movwf	31	;volatile
  4192                           
  4193                           ;CMS_CheckTouch_PT_79F72x_V1.01.c: 922: KeyCounter = 0;
  4194  0054  01E4               	clrf	100	;volatile
  4195                           
  4196                           ;CMS_CheckTouch_PT_79F72x_V1.01.c: 923: b_over2 = 0;
  4197  0055  1283               	bcf	3,5	;RP0=0, select bank0
  4198  0056  1303               	bcf	3,6	;RP1=0, select bank0
  4199  0057                     L2:	
  4200  0057  13DD               	bcf	_b_over2/(0+8),_b_over2& (0+7)	;volatile
  4201                           
  4202                           ;CMS_CheckTouch_PT_79F72x_V1.01.c: 924: __CMS_KeyModeSet();
  4203  0058  227B  120A  118A   	fcall	___CMS_KeyModeSet
  4204                           
  4205                           ;CMS_CheckTouch_PT_79F72x_V1.01.c: 925: b_over1 = 1;
  4206  005B  1283               	bcf	3,5	;RP0=0, select bank0
  4207  005C  1303               	bcf	3,6	;RP1=0, select bank0
  4208  005D  145E               	bsf	_b_over1/(0+8),_b_over1& (0+7)	;volatile
  4209  005E  2871               	goto	i1l6292
  4210  005F                     i1l6285:	
  4211                           
  4212                           ;CMS_CheckTouch_PT_79F72x_V1.01.c: 928: else
  4213                           ;CMS_CheckTouch_PT_79F72x_V1.01.c: 929: {
  4214                           ;CMS_CheckTouch_PT_79F72x_V1.01.c: 930: b_onceerr = 0;
  4215  005F  135D               	bcf	_b_onceerr/(0+8),_b_onceerr& (0+7)	;volatile
  4216  0060  2857               	goto	L2
  4217  0061                     i1l6283:	
  4218                           ;CMS_CheckTouch_PT_79F72x_V1.01.c: 931: b_over2 = 0;
  4219                           
  4220                           
  4221                           ;CMS_CheckTouch_PT_79F72x_V1.01.c: 937: else
  4222                           ;CMS_CheckTouch_PT_79F72x_V1.01.c: 938: {
  4223                           ;CMS_CheckTouch_PT_79F72x_V1.01.c: 939: if(!SDfst)
  4224  0061  185D               	btfsc	___CMS_CheckTouchKey@SDfst/(0+8),___CMS_CheckTouchKey@SDfst& (0+7)
  4225  0062  286E               	goto	i1l8542
  4226                           
  4227                           ;CMS_CheckTouch_PT_79F72x_V1.01.c: 940: {
  4228                           ;CMS_CheckTouch_PT_79F72x_V1.01.c: 941: SDfst = 1;
  4229  0063  145D               	bsf	___CMS_CheckTouchKey@SDfst/(0+8),___CMS_CheckTouchKey@SDfst& (0+7)
  4230                           
  4231                           ;CMS_CheckTouch_PT_79F72x_V1.01.c: 942: __CMS_NewRAMClr();
  4232  0064  120A  158A  2669  120A  118A  	fcall	___CMS_NewRAMClr
  4233                           
  4234                           ;CMS_CheckTouch_PT_79F72x_V1.01.c: 943: __GET_32M_FREDAT();
  4235  0069  120A  158A  2652  120A  118A  	fcall	___GET_32M_FREDAT
  4236  006E                     i1l8542:	
  4237                           
  4238                           ;CMS_CheckTouch_PT_79F72x_V1.01.c: 944: }
  4239                           ;CMS_CheckTouch_PT_79F72x_V1.01.c: 945: __CMS_CurAdjust();
  4240  006E  229A  120A  118A   	fcall	___CMS_CurAdjust
  4241  0071                     i1l6292:	
  4242                           
  4243                           ;CMS_CheckTouch_PT_79F72x_V1.01.c: 946: }
  4244                           ;CMS_CheckTouch_PT_79F72x_V1.01.c: 947: __CMS_CheckValidTime();
  4245  0071  2C10               	ljmp	i1l8192
  4246  0072                     __end_of___CMS_CheckTouchKey:	
  4247  0072                     __ptext41:	
  4248 ;; *************** function ___CMS_CheckKeyOldValue *****************
  4249 ;; Defined at:
  4250 ;;		line 557 in file "G:\WORK\ĽĽĘőĎŕąŘ\ĎîÄżłĚĐňżŞ·˘\´ĄĂţżâłĚĐň\´ĄĂţÔ´łĚĐň\ĐÂ´ĄĂţÔ´łĚĐň\CMS79F72x\±ę×Ľ\CÓďŃÔ\CMS_CheckTou
      +ch_PT_79F72x_V1.01(Ô´)\CMS_CheckTouch_PT_79F72x_V1.01.c"
  4251 ;; Parameters:    Size  Location     Type
  4252 ;;		None
  4253 ;; Auto vars:     Size  Location     Type
  4254 ;;  KeyOldTemp      2    9[BANK0 ] unsigned int 
  4255 ;;  KeyTemp         2    7[BANK0 ] unsigned int 
  4256 ;;  KeyBase         2    5[BANK0 ] unsigned int 
  4257 ;;  KeyOneTemp      2    2[BANK0 ] unsigned int 
  4258 ;;  KeyBaseLV       2    0[BANK0 ] unsigned int 
  4259 ;;  cnt             1   11[BANK0 ] unsigned char 
  4260 ;;  VolValueOne     1    4[BANK0 ] unsigned char 
  4261 ;; Return value:  Size  Location     Type
  4262 ;;                  1    wreg      void 
  4263 ;; Registers used:
  4264 ;;		wreg, fsr0l, fsr0h, status,2, status,0, pclath, cstack
  4265 ;; Tracked objects:
  4266 ;;		On entry : B00/800
  4267 ;;		On exit  : B00/800
  4268 ;;		Unchanged: 0/0
  4269 ;; Data sizes:     COMMON   BANK0   BANK1   BANK2
  4270 ;;      Params:         0       0       0       0
  4271 ;;      Locals:         0      12       0       0
  4272 ;;      Temps:          2       0       0       0
  4273 ;;      Totals:         2      12       0       0
  4274 ;;Total ram usage:       14 bytes
  4275 ;; Hardware stack levels used:    1
  4276 ;; Hardware stack levels required when called:    2
  4277 ;; This function calls:
  4278 ;;		___CMS_KeyIsIn
  4279 ;; This function is called by:
  4280 ;;		___CMS_CheckTouchKey
  4281 ;; This function uses a non-reentrant model
  4282 ;;
  4283                           
  4284                           
  4285                           ;psect for function ___CMS_CheckKeyOldValue
  4286  0072                     ___CMS_CheckKeyOldValue:	
  4287                           
  4288                           ;CMS_CheckTouch_PT_79F72x_V1.01.c: 559: unsigned char cnt = 0;
  4289                           
  4290                           ;incstack = 0
  4291 ;; hardware stack exceeded
  4292                           ; Regs used in ___CMS_CheckKeyOldValue: [wreg-fsr0h+status,2+status,0+pclath+cstack]
  4293  0072  01D0               	clrf	___CMS_CheckKeyOldValue@cnt
  4294  0073                     i1l8146:	
  4295                           
  4296                           ;CMS_CheckTouch_PT_79F72x_V1.01.c: 565: {
  4297                           ;CMS_CheckTouch_PT_79F72x_V1.01.c: 566: __CMS_RAMCTR = 0x01;;
  4298  0073  3001               	movlw	1
  4299  0074  1683               	bsf	3,5	;RP0=1, select bank3
  4300  0075  1703               	bsf	3,6	;RP1=1, select bank3
  4301  0076  009F               	movwf	31	;volatile
  4302                           
  4303                           ;CMS_CheckTouch_PT_79F72x_V1.01.c: 567: KeyTemp = KeySum[cnt];
  4304  0077  1283               	bcf	3,5	;RP0=0, select bank0
  4305  0078  1303               	bcf	3,6	;RP1=0, select bank0
  4306  0079  1003               	clrc
  4307  007A  0D50               	rlf	___CMS_CheckKeyOldValue@cnt,w
  4308  007B  3EA0               	addlw	160
  4309  007C  0084               	movwf	4
  4310  007D  0800               	movf	0,w
  4311  007E  00CC               	movwf	___CMS_CheckKeyOldValue@KeyTemp
  4312  007F  0A84               	incf	4,f
  4313  0080  0800               	movf	0,w
  4314  0081  00CD               	movwf	___CMS_CheckKeyOldValue@KeyTemp+1
  4315                           
  4316                           ;CMS_CheckTouch_PT_79F72x_V1.01.c: 568: __CMS_RAMCTR = 0x02;;
  4317  0082  3002               	movlw	2
  4318  0083  1683               	bsf	3,5	;RP0=1, select bank3
  4319  0084  1703               	bsf	3,6	;RP1=1, select bank3
  4320  0085  009F               	movwf	31	;volatile
  4321                           
  4322                           ;CMS_CheckTouch_PT_79F72x_V1.01.c: 569: KeyOldTemp = KeyOldValue[cnt];
  4323  0086  1283               	bcf	3,5	;RP0=0, select bank0
  4324  0087  1303               	bcf	3,6	;RP1=0, select bank0
  4325  0088  1003               	clrc
  4326  0089  0D50               	rlf	___CMS_CheckKeyOldValue@cnt,w
  4327  008A  3EA0               	addlw	160
  4328  008B  0084               	movwf	4
  4329  008C  0800               	movf	0,w
  4330  008D  00CE               	movwf	___CMS_CheckKeyOldValue@KeyOldTemp
  4331  008E  0A84               	incf	4,f
  4332  008F  0800               	movf	0,w
  4333  0090  00CF               	movwf	___CMS_CheckKeyOldValue@KeyOldTemp+1
  4334                           
  4335                           ;CMS_CheckTouch_PT_79F72x_V1.01.c: 570: KeyBase = KeyReference[cnt];
  4336  0091  1003               	clrc
  4337  0092  0D50               	rlf	___CMS_CheckKeyOldValue@cnt,w
  4338  0093  3EC0               	addlw	192
  4339  0094  0084               	movwf	4
  4340  0095  0800               	movf	0,w
  4341  0096  00CA               	movwf	___CMS_CheckKeyOldValue@KeyBase
  4342  0097  0A84               	incf	4,f
  4343  0098  0800               	movf	0,w
  4344  0099  00CB               	movwf	___CMS_CheckKeyOldValue@KeyBase+1
  4345                           
  4346                           ;CMS_CheckTouch_PT_79F72x_V1.01.c: 571: if(KeyOldTemp >= KeyTemp)
  4347  009A  084D               	movf	___CMS_CheckKeyOldValue@KeyTemp+1,w
  4348  009B  024F               	subwf	___CMS_CheckKeyOldValue@KeyOldTemp+1,w
  4349  009C  1D03               	skipz
  4350  009D  28A0               	goto	u194_25
  4351  009E  084C               	movf	___CMS_CheckKeyOldValue@KeyTemp,w
  4352  009F  024E               	subwf	___CMS_CheckKeyOldValue@KeyOldTemp,w
  4353  00A0                     u194_25:	
  4354  00A0  1C03               	skipc
  4355  00A1  28AA               	goto	i1l8160
  4356                           
  4357                           ;CMS_CheckTouch_PT_79F72x_V1.01.c: 572: {
  4358                           ;CMS_CheckTouch_PT_79F72x_V1.01.c: 573: KeyOneTemp = KeyOldTemp - KeyTemp;
  4359  00A2  084F               	movf	___CMS_CheckKeyOldValue@KeyOldTemp+1,w
  4360  00A3  00C8               	movwf	___CMS_CheckKeyOldValue@KeyOneTemp+1
  4361  00A4  084E               	movf	___CMS_CheckKeyOldValue@KeyOldTemp,w
  4362  00A5  00C7               	movwf	___CMS_CheckKeyOldValue@KeyOneTemp
  4363  00A6  084C               	movf	___CMS_CheckKeyOldValue@KeyTemp,w
  4364  00A7  02C7               	subwf	___CMS_CheckKeyOldValue@KeyOneTemp,f
  4365  00A8  084D               	movf	___CMS_CheckKeyOldValue@KeyTemp+1,w
  4366  00A9  28B1               	goto	L5
  4367  00AA                     i1l8160:	
  4368                           ;CMS_CheckTouch_PT_79F72x_V1.01.c: 574: }
  4369                           
  4370                           
  4371                           ;CMS_CheckTouch_PT_79F72x_V1.01.c: 575: else
  4372                           ;CMS_CheckTouch_PT_79F72x_V1.01.c: 576: {
  4373                           ;CMS_CheckTouch_PT_79F72x_V1.01.c: 577: KeyOneTemp = KeyTemp - KeyOldTemp;
  4374  00AA  084D               	movf	___CMS_CheckKeyOldValue@KeyTemp+1,w
  4375  00AB  00C8               	movwf	___CMS_CheckKeyOldValue@KeyOneTemp+1
  4376  00AC  084C               	movf	___CMS_CheckKeyOldValue@KeyTemp,w
  4377  00AD  00C7               	movwf	___CMS_CheckKeyOldValue@KeyOneTemp
  4378  00AE  084E               	movf	___CMS_CheckKeyOldValue@KeyOldTemp,w
  4379  00AF  02C7               	subwf	___CMS_CheckKeyOldValue@KeyOneTemp,f
  4380  00B0  084F               	movf	___CMS_CheckKeyOldValue@KeyOldTemp+1,w
  4381  00B1                     L5:	
  4382  00B1  1C03               	skipc
  4383  00B2  03C8               	decf	___CMS_CheckKeyOldValue@KeyOneTemp+1,f
  4384  00B3  02C8               	subwf	___CMS_CheckKeyOldValue@KeyOneTemp+1,f
  4385                           
  4386                           ;CMS_CheckTouch_PT_79F72x_V1.01.c: 578: }
  4387                           ;CMS_CheckTouch_PT_79F72x_V1.01.c: 579: if(KeyBase >= 2048+512+256)
  4388  00B4  300B               	movlw	11
  4389  00B5  024B               	subwf	___CMS_CheckKeyOldValue@KeyBase+1,w
  4390  00B6  3000               	movlw	0
  4391  00B7  1903               	skipnz
  4392  00B8  024A               	subwf	___CMS_CheckKeyOldValue@KeyBase,w
  4393  00B9  1C03               	skipc
  4394  00BA  28BF               	goto	i1l8164
  4395  00BB                     i1l8162:	
  4396  00BB  3025               	movlw	37
  4397  00BC  00C9               	movwf	___CMS_CheckKeyOldValue@VolValueOne
  4398                           
  4399                           ;CMS_CheckTouch_PT_79F72x_V1.01.c: 582: KeyBaseLV = 6;
  4400  00BD  3006               	movlw	6
  4401  00BE  28C6               	goto	L6
  4402  00BF                     i1l8164:	
  4403                           ;CMS_CheckTouch_PT_79F72x_V1.01.c: 583: }
  4404                           
  4405                           
  4406                           ;CMS_CheckTouch_PT_79F72x_V1.01.c: 584: else if(0 == KeyBase)
  4407  00BF  084A               	movf	___CMS_CheckKeyOldValue@KeyBase,w
  4408  00C0  044B               	iorwf	___CMS_CheckKeyOldValue@KeyBase+1,w
  4409  00C1  1903               	btfsc	3,2
  4410  00C2  28BB               	goto	i1l8162
  4411  00C3  300C               	movlw	12
  4412  00C4  00C9               	movwf	___CMS_CheckKeyOldValue@VolValueOne
  4413  00C5  300A               	movlw	10
  4414  00C6                     L6:	
  4415  00C6  00C5               	movwf	___CMS_CheckKeyOldValue@KeyBaseLV
  4416  00C7  3002               	movlw	2
  4417  00C8  01C6               	clrf	___CMS_CheckKeyOldValue@KeyBaseLV+1
  4418                           
  4419                           ;CMS_CheckTouch_PT_79F72x_V1.01.c: 593: }
  4420                           ;CMS_CheckTouch_PT_79F72x_V1.01.c: 595: __CMS_RAMCTR = 0x02;;
  4421  00C9  1683               	bsf	3,5	;RP0=1, select bank3
  4422  00CA  1703               	bsf	3,6	;RP1=1, select bank3
  4423  00CB  009F               	movwf	31	;volatile
  4424                           
  4425                           ;CMS_CheckTouch_PT_79F72x_V1.01.c: 596: KeyOldValue[cnt] = KeyTemp;
  4426  00CC  1283               	bcf	3,5	;RP0=0, select bank0
  4427  00CD  1303               	bcf	3,6	;RP1=0, select bank0
  4428  00CE  1003               	clrc
  4429  00CF  0D50               	rlf	___CMS_CheckKeyOldValue@cnt,w
  4430  00D0  3EA0               	addlw	160
  4431  00D1  0084               	movwf	4
  4432  00D2  084C               	movf	___CMS_CheckKeyOldValue@KeyTemp,w
  4433  00D3  0080               	movwf	0
  4434  00D4  0A84               	incf	4,f
  4435  00D5  084D               	movf	___CMS_CheckKeyOldValue@KeyTemp+1,w
  4436  00D6  0080               	movwf	0
  4437                           
  4438                           ;CMS_CheckTouch_PT_79F72x_V1.01.c: 597: if(!__CMS_KeyIsIn(cnt))
  4439  00D7  0850               	movf	___CMS_CheckKeyOldValue@cnt,w
  4440  00D8  2234  120A  118A   	fcall	___CMS_KeyIsIn
  4441  00DB  3A00               	xorlw	0
  4442  00DC  1D03               	skipz
  4443  00DD  2912               	goto	i1l8186
  4444                           
  4445                           ;CMS_CheckTouch_PT_79F72x_V1.01.c: 598: {
  4446                           ;CMS_CheckTouch_PT_79F72x_V1.01.c: 599: if(KeyOneTemp <= VolValueOne)
  4447  00DE  0849               	movf	___CMS_CheckKeyOldValue@VolValueOne,w
  4448  00DF  00F2               	movwf	??___CMS_CheckKeyOldValue
  4449  00E0  01F3               	clrf	??___CMS_CheckKeyOldValue+1
  4450  00E1  0848               	movf	___CMS_CheckKeyOldValue@KeyOneTemp+1,w
  4451  00E2  0273               	subwf	??___CMS_CheckKeyOldValue+1,w
  4452  00E3  1D03               	skipz
  4453  00E4  28E7               	goto	u198_25
  4454  00E5  0847               	movf	___CMS_CheckKeyOldValue@KeyOneTemp,w
  4455  00E6  0272               	subwf	??___CMS_CheckKeyOldValue,w
  4456  00E7                     u198_25:	
  4457                           
  4458                           ;CMS_CheckTouch_PT_79F72x_V1.01.c: 600: {
  4459                           ;CMS_CheckTouch_PT_79F72x_V1.01.c: 601: __CMS_RAMCTR = 0x04;;
  4460  00E7  3004               	movlw	4
  4461  00E8  1C03               	skipc
  4462  00E9  2913               	goto	L7
  4463  00EA  1683               	bsf	3,5	;RP0=1, select bank3
  4464  00EB  1703               	bsf	3,6	;RP1=1, select bank3
  4465  00EC  009F               	movwf	31	;volatile
  4466                           
  4467                           ;CMS_CheckTouch_PT_79F72x_V1.01.c: 602: if(++KeyBaseCnt[cnt] >= KeyBaseLV)
  4468  00ED  1283               	bcf	3,5	;RP0=0, select bank0
  4469  00EE  1303               	bcf	3,6	;RP1=0, select bank0
  4470  00EF  0850               	movf	___CMS_CheckKeyOldValue@cnt,w
  4471  00F0  3EC0               	addlw	192
  4472  00F1  0084               	movwf	4
  4473  00F2  0A80               	incf	0,f
  4474  00F3  0800               	movf	0,w
  4475  00F4  00F2               	movwf	??___CMS_CheckKeyOldValue
  4476  00F5  01F3               	clrf	??___CMS_CheckKeyOldValue+1
  4477  00F6  0846               	movf	___CMS_CheckKeyOldValue@KeyBaseLV+1,w
  4478  00F7  0273               	subwf	??___CMS_CheckKeyOldValue+1,w
  4479  00F8  1D03               	skipz
  4480  00F9  28FC               	goto	u199_25
  4481  00FA  0845               	movf	___CMS_CheckKeyOldValue@KeyBaseLV,w
  4482  00FB  0272               	subwf	??___CMS_CheckKeyOldValue,w
  4483  00FC                     u199_25:	
  4484  00FC  1C03               	skipc
  4485  00FD  291C               	goto	i1l8190
  4486                           
  4487                           ;CMS_CheckTouch_PT_79F72x_V1.01.c: 603: {
  4488                           ;CMS_CheckTouch_PT_79F72x_V1.01.c: 604: KeyBaseCnt[cnt] = 0;
  4489  00FE  0850               	movf	___CMS_CheckKeyOldValue@cnt,w
  4490  00FF  3EC0               	addlw	192
  4491  0100  0084               	movwf	4
  4492  0101  3002               	movlw	2
  4493  0102  0180               	clrf	0
  4494                           
  4495                           ;CMS_CheckTouch_PT_79F72x_V1.01.c: 605: __CMS_RAMCTR = 0x02;;
  4496  0103  1683               	bsf	3,5	;RP0=1, select bank3
  4497  0104  1703               	bsf	3,6	;RP1=1, select bank3
  4498  0105  009F               	movwf	31	;volatile
  4499                           
  4500                           ;CMS_CheckTouch_PT_79F72x_V1.01.c: 606: KeyReference[cnt] = KeyOldTemp;
  4501  0106  1283               	bcf	3,5	;RP0=0, select bank0
  4502  0107  1303               	bcf	3,6	;RP1=0, select bank0
  4503  0108  1003               	clrc
  4504  0109  0D50               	rlf	___CMS_CheckKeyOldValue@cnt,w
  4505  010A  3EC0               	addlw	192
  4506  010B  0084               	movwf	4
  4507  010C  084E               	movf	___CMS_CheckKeyOldValue@KeyOldTemp,w
  4508  010D  0080               	movwf	0
  4509  010E  0A84               	incf	4,f
  4510  010F  084F               	movf	___CMS_CheckKeyOldValue@KeyOldTemp+1,w
  4511  0110  0080               	movwf	0
  4512  0111  291C               	goto	i1l8190
  4513  0112                     i1l8186:	
  4514                           
  4515                           ;CMS_CheckTouch_PT_79F72x_V1.01.c: 609: }
  4516                           ;CMS_CheckTouch_PT_79F72x_V1.01.c: 610: }
  4517                           ;CMS_CheckTouch_PT_79F72x_V1.01.c: 611: __CMS_RAMCTR = 0x04;;
  4518  0112  3004               	movlw	4
  4519  0113                     L7:	
  4520  0113  1683               	bsf	3,5	;RP0=1, select bank3
  4521  0114  1703               	bsf	3,6	;RP1=1, select bank3
  4522  0115  009F               	movwf	31	;volatile
  4523                           
  4524                           ;CMS_CheckTouch_PT_79F72x_V1.01.c: 612: KeyBaseCnt[cnt] = 0;
  4525  0116  1283               	bcf	3,5	;RP0=0, select bank0
  4526  0117  1303               	bcf	3,6	;RP1=0, select bank0
  4527  0118  0850               	movf	___CMS_CheckKeyOldValue@cnt,w
  4528  0119  3EC0               	addlw	192
  4529  011A  0084               	movwf	4
  4530  011B  0180               	clrf	0
  4531  011C                     i1l8190:	
  4532  011C  3004               	movlw	4
  4533  011D  0AD0               	incf	___CMS_CheckKeyOldValue@cnt,f
  4534  011E  0250               	subwf	___CMS_CheckKeyOldValue@cnt,w
  4535  011F  1803               	btfsc	3,0
  4536  0120  0008               	return
  4537  0121  2873               	goto	i1l8146
  4538  0122                     __end_of___CMS_CheckKeyOldValue:	
  4539  0122                     __ptext37:	
  4540 ;; *************** function ___CMS_CheckOnceResult *****************
  4541 ;; Defined at:
  4542 ;;		line 464 in file "G:\WORK\ĽĽĘőĎŕąŘ\ĎîÄżłĚĐňżŞ·˘\´ĄĂţżâłĚĐň\´ĄĂţÔ´łĚĐň\ĐÂ´ĄĂţÔ´łĚĐň\CMS79F72x\±ę×Ľ\CÓďŃÔ\CMS_CheckTou
      +ch_PT_79F72x_V1.01(Ô´)\CMS_CheckTouch_PT_79F72x_V1.01.c"
  4543 ;; Parameters:    Size  Location     Type
  4544 ;;		None
  4545 ;; Auto vars:     Size  Location     Type
  4546 ;;  KeyBase         2    6[BANK0 ] unsigned int 
  4547 ;;  KeyValue        2    2[BANK0 ] unsigned int 
  4548 ;;  KeyDown         2    0[BANK0 ] unsigned int 
  4549 ;;  cnt             1   10[BANK0 ] unsigned char 
  4550 ;;  flag            1    9[BANK0 ] unsigned char 
  4551 ;;  templ           1    8[BANK0 ] unsigned char 
  4552 ;;  KHaveTemp       1    5[BANK0 ] unsigned char 
  4553 ;;  KHaveC          1    4[BANK0 ] unsigned char 
  4554 ;; Return value:  Size  Location     Type
  4555 ;;                  1    wreg      void 
  4556 ;; Registers used:
  4557 ;;		wreg, fsr0l, fsr0h, status,2, status,0, pclath, cstack
  4558 ;; Tracked objects:
  4559 ;;		On entry : 300/0
  4560 ;;		On exit  : 300/0
  4561 ;;		Unchanged: 0/0
  4562 ;; Data sizes:     COMMON   BANK0   BANK1   BANK2
  4563 ;;      Params:         0       0       0       0
  4564 ;;      Locals:         0      11       0       0
  4565 ;;      Temps:          5       0       0       0
  4566 ;;      Totals:         5      11       0       0
  4567 ;;Total ram usage:       16 bytes
  4568 ;; Hardware stack levels used:    1
  4569 ;; Hardware stack levels required when called:    2
  4570 ;; This function calls:
  4571 ;;		___CMS_KeyClearOne
  4572 ;;		___CMS_KeyHaveDown
  4573 ;;		___CMS_KeyIsIn
  4574 ;;		___CMS_KeyOpen
  4575 ;; This function is called by:
  4576 ;;		___CMS_CheckTouchKey
  4577 ;; This function uses a non-reentrant model
  4578 ;;
  4579                           
  4580                           
  4581                           ;psect for function ___CMS_CheckOnceResult
  4582  0122                     ___CMS_CheckOnceResult:	
  4583                           
  4584                           ;CMS_CheckTouch_PT_79F72x_V1.01.c: 466: unsigned char cnt = 0,templ;
  4585                           
  4586                           ;incstack = 0
  4587 ;; hardware stack exceeded
  4588                           ; Regs used in ___CMS_CheckOnceResult: [wreg-fsr0h+status,2+status,0+pclath+cstack]
  4589  0122  01CF               	clrf	___CMS_CheckOnceResult@cnt
  4590  0123                     i1l8062:	
  4591                           
  4592                           ;CMS_CheckTouch_PT_79F72x_V1.01.c: 476: {
  4593                           ;CMS_CheckTouch_PT_79F72x_V1.01.c: 477: __CMS_RAMCTR = 0x02;;
  4594  0123  3002               	movlw	2
  4595  0124  1683               	bsf	3,5	;RP0=1, select bank3
  4596  0125  1703               	bsf	3,6	;RP1=1, select bank3
  4597  0126  009F               	movwf	31	;volatile
  4598                           
  4599                           ;CMS_CheckTouch_PT_79F72x_V1.01.c: 478: KeyBase = KeyReference[cnt];
  4600  0127  1283               	bcf	3,5	;RP0=0, select bank0
  4601  0128  1303               	bcf	3,6	;RP1=0, select bank0
  4602  0129  1003               	clrc
  4603  012A  0D4F               	rlf	___CMS_CheckOnceResult@cnt,w
  4604  012B  3EC0               	addlw	192
  4605  012C  0084               	movwf	4
  4606  012D  1783               	bsf	3,7	;select IRP bank3
  4607  012E  0800               	movf	0,w
  4608  012F  00CB               	movwf	___CMS_CheckOnceResult@KeyBase
  4609  0130  0A84               	incf	4,f
  4610  0131  0800               	movf	0,w
  4611  0132  00CC               	movwf	___CMS_CheckOnceResult@KeyBase+1
  4612                           
  4613                           ;CMS_CheckTouch_PT_79F72x_V1.01.c: 479: KeyDown = Table_KeyDown[cnt];
  4614  0133  1003               	clrc
  4615  0134  0D4F               	rlf	___CMS_CheckOnceResult@cnt,w
  4616  0135  3E13               	addlw	low ((_Table_KeyDown-__stringbase)| (0+32768))
  4617  0136  0084               	movwf	4
  4618  0137  120A  158A  2000  120A  118A  	fcall	stringdir
  4619  013C  00C5               	movwf	___CMS_CheckOnceResult@KeyDown
  4620  013D  120A  158A  2000  120A  118A  	fcall	stringdir
  4621  0142  00C6               	movwf	___CMS_CheckOnceResult@KeyDown+1
  4622                           
  4623                           ;CMS_CheckTouch_PT_79F72x_V1.01.c: 480: flag = (unsigned char)(__CMS_Table_KeyFalg[(unsi
      +                          gned char)(cnt&0x7)]);
  4624  0143  084F               	movf	___CMS_CheckOnceResult@cnt,w
  4625  0144  3907               	andlw	7
  4626  0145  3E0B               	addlw	low ((___CMS_Table_KeyFalg-__stringbase)| (0+32768))
  4627  0146  0084               	movwf	4
  4628  0147  120A  158A  2000  120A  118A  	fcall	stringdir
  4629  014C  00CE               	movwf	___CMS_CheckOnceResult@flag
  4630                           
  4631                           ;CMS_CheckTouch_PT_79F72x_V1.01.c: 481: __CMS_RAMCTR = 0x01;;
  4632  014D  3001               	movlw	1
  4633  014E  1683               	bsf	3,5	;RP0=1, select bank3
  4634  014F  1703               	bsf	3,6	;RP1=1, select bank3
  4635  0150  009F               	movwf	31	;volatile
  4636                           
  4637                           ;CMS_CheckTouch_PT_79F72x_V1.01.c: 482: if(0 == (KeyUnusual & (unsigned int)(1 << cnt)))
  4638  0151  1283               	bcf	3,5	;RP0=0, select bank0
  4639  0152  1303               	bcf	3,6	;RP1=0, select bank0
  4640  0153  0A4F               	incf	___CMS_CheckOnceResult@cnt,w
  4641  0154  00F3               	movwf	??___CMS_CheckOnceResult
  4642  0155  3001               	movlw	1
  4643  0156  00F4               	movwf	??___CMS_CheckOnceResult+1
  4644  0157  3000               	movlw	0
  4645  0158  00F5               	movwf	??___CMS_CheckOnceResult+2
  4646  0159  295D               	goto	u181_24
  4647  015A                     u181_25:	
  4648  015A  1003               	clrc
  4649  015B  0DF4               	rlf	??___CMS_CheckOnceResult+1,f
  4650  015C  0DF5               	rlf	??___CMS_CheckOnceResult+2,f
  4651  015D                     u181_24:	
  4652  015D  0BF3               	decfsz	??___CMS_CheckOnceResult,f
  4653  015E  295A               	goto	u181_25
  4654  015F  1683               	bsf	3,5	;RP0=1, select bank3
  4655  0160  1703               	bsf	3,6	;RP1=1, select bank3
  4656  0161  0854               	movf	84,w	;volatile
  4657  0162  0574               	andwf	??___CMS_CheckOnceResult+1,w
  4658  0163  00F6               	movwf	??___CMS_CheckOnceResult+3
  4659  0164  0855               	movf	85,w	;volatile
  4660  0165  0575               	andwf	??___CMS_CheckOnceResult+2,w
  4661  0166  00F7               	movwf	??___CMS_CheckOnceResult+4
  4662  0167  0476               	iorwf	??___CMS_CheckOnceResult+3,w
  4663                           
  4664                           ;CMS_CheckTouch_PT_79F72x_V1.01.c: 483: {
  4665                           ;CMS_CheckTouch_PT_79F72x_V1.01.c: 484: __CMS_RAMCTR = 0x02;;
  4666  0168  3002               	movlw	2
  4667  0169  1D03               	btfss	3,2
  4668  016A  2A01               	goto	L4
  4669  016B  009F               	movwf	31	;volatile
  4670                           
  4671                           ;CMS_CheckTouch_PT_79F72x_V1.01.c: 485: KeyNosieC[cnt] = 0;
  4672  016C  1283               	bcf	3,5	;RP0=0, select bank0
  4673  016D  1303               	bcf	3,6	;RP1=0, select bank0
  4674  016E  084F               	movf	___CMS_CheckOnceResult@cnt,w
  4675  016F  3EE0               	addlw	224
  4676  0170  0084               	movwf	4
  4677  0171  0180               	clrf	0
  4678                           
  4679                           ;CMS_CheckTouch_PT_79F72x_V1.01.c: 486: if((0 != KeyBase) && (KeyBase < 2048+512+256))
  4680  0172  084B               	movf	___CMS_CheckOnceResult@KeyBase,w
  4681  0173  044C               	iorwf	___CMS_CheckOnceResult@KeyBase+1,w
  4682  0174  1903               	btfsc	3,2
  4683  0175  2A1C               	goto	i1l6184
  4684  0176  300B               	movlw	11
  4685  0177  024C               	subwf	___CMS_CheckOnceResult@KeyBase+1,w
  4686  0178  3000               	movlw	0
  4687  0179  1903               	skipnz
  4688  017A  024B               	subwf	___CMS_CheckOnceResult@KeyBase,w
  4689  017B  1803               	skipnc
  4690  017C  2A1C               	goto	i1l6184
  4691  017D  084B               	movf	___CMS_CheckOnceResult@KeyBase,w
  4692  017E  3E0C               	addlw	12
  4693  017F  00C7               	movwf	___CMS_CheckOnceResult@KeyValue
  4694  0180  084C               	movf	___CMS_CheckOnceResult@KeyBase+1,w
  4695  0181  1803               	skipnc
  4696  0182  3E01               	addlw	1
  4697  0183  00C8               	movwf	___CMS_CheckOnceResult@KeyValue+1
  4698  0184  0845               	movf	___CMS_CheckOnceResult@KeyDown,w
  4699  0185  07C7               	addwf	___CMS_CheckOnceResult@KeyValue,f
  4700  0186  1803               	skipnc
  4701  0187  0AC8               	incf	___CMS_CheckOnceResult@KeyValue+1,f
  4702  0188  0846               	movf	___CMS_CheckOnceResult@KeyDown+1,w
  4703  0189  07C8               	addwf	___CMS_CheckOnceResult@KeyValue+1,f
  4704                           
  4705                           ;CMS_CheckTouch_PT_79F72x_V1.01.c: 489: KeyDownF = 0;
  4706  018A  115D               	bcf	___CMS_CheckOnceResult@KeyDownF/(0+8),___CMS_CheckOnceResult@KeyDownF& (0+7)
  4707                           
  4708                           ;CMS_CheckTouch_PT_79F72x_V1.01.c: 490: if(__CMS_KeyIsIn(cnt))
  4709  018B  084F               	movf	___CMS_CheckOnceResult@cnt,w
  4710  018C  2234  120A  118A   	fcall	___CMS_KeyIsIn
  4711  018F  3A00               	xorlw	0
  4712  0190  1903               	skipnz
  4713  0191  2999               	goto	i1l6174
  4714  0192  30E7               	movlw	231
  4715                           
  4716                           ;CMS_CheckTouch_PT_79F72x_V1.01.c: 491: {
  4717                           ;CMS_CheckTouch_PT_79F72x_V1.01.c: 492: KeyDownF = 1;
  4718  0193  155D               	bsf	___CMS_CheckOnceResult@KeyDownF/(0+8),___CMS_CheckOnceResult@KeyDownF& (0+7)
  4719  0194  07C7               	addwf	___CMS_CheckOnceResult@KeyValue,f
  4720  0195  1803               	skipnc
  4721  0196  0AC8               	incf	___CMS_CheckOnceResult@KeyValue+1,f
  4722  0197  30FF               	movlw	255
  4723  0198  07C8               	addwf	___CMS_CheckOnceResult@KeyValue+1,f
  4724  0199                     i1l6174:	
  4725                           
  4726                           ;CMS_CheckTouch_PT_79F72x_V1.01.c: 496: __CMS_RAMCTR = 0x01;;
  4727  0199  3001               	movlw	1
  4728  019A  1683               	bsf	3,5	;RP0=1, select bank3
  4729  019B  1703               	bsf	3,6	;RP1=1, select bank3
  4730  019C  009F               	movwf	31	;volatile
  4731                           
  4732                           ;CMS_CheckTouch_PT_79F72x_V1.01.c: 497: KeyHave[cnt] <<= 1;
  4733  019D  1283               	bcf	3,5	;RP0=0, select bank0
  4734  019E  1303               	bcf	3,6	;RP1=0, select bank0
  4735  019F  084F               	movf	___CMS_CheckOnceResult@cnt,w
  4736  01A0  3EC0               	addlw	192
  4737  01A1  0084               	movwf	4
  4738  01A2  1003               	clrc
  4739  01A3  0D80               	rlf	0,f
  4740                           
  4741                           ;CMS_CheckTouch_PT_79F72x_V1.01.c: 498: KeyHave[cnt] &= templ;
  4742  01A4  084F               	movf	___CMS_CheckOnceResult@cnt,w
  4743  01A5  3EC0               	addlw	192
  4744  01A6  0084               	movwf	4
  4745  01A7  3003               	movlw	3
  4746  01A8  0580               	andwf	0,f
  4747                           
  4748                           ;CMS_CheckTouch_PT_79F72x_V1.01.c: 499: if(KeyValue <= KeySum[cnt])
  4749  01A9  1003               	clrc
  4750  01AA  0D4F               	rlf	___CMS_CheckOnceResult@cnt,w
  4751  01AB  3EA0               	addlw	160
  4752  01AC  0084               	movwf	4
  4753  01AD  0800               	movf	0,w
  4754  01AE  00F3               	movwf	??___CMS_CheckOnceResult
  4755  01AF  0A84               	incf	4,f
  4756  01B0  0800               	movf	0,w
  4757  01B1  00F4               	movwf	??___CMS_CheckOnceResult+1
  4758  01B2  0848               	movf	___CMS_CheckOnceResult@KeyValue+1,w
  4759  01B3  0274               	subwf	??___CMS_CheckOnceResult+1,w
  4760  01B4  1D03               	skipz
  4761  01B5  29B8               	goto	u186_25
  4762  01B6  0847               	movf	___CMS_CheckOnceResult@KeyValue,w
  4763  01B7  0273               	subwf	??___CMS_CheckOnceResult,w
  4764  01B8                     u186_25:	
  4765  01B8  1C03               	skipc
  4766  01B9  29BE               	goto	i1l8102
  4767                           
  4768                           ;CMS_CheckTouch_PT_79F72x_V1.01.c: 500: {
  4769                           ;CMS_CheckTouch_PT_79F72x_V1.01.c: 501: KeyHave[cnt] |= 0x01;
  4770  01BA  084F               	movf	___CMS_CheckOnceResult@cnt,w
  4771  01BB  3EC0               	addlw	192
  4772  01BC  0084               	movwf	4
  4773  01BD  1400               	bsf	0,0
  4774  01BE                     i1l8102:	
  4775                           
  4776                           ;CMS_CheckTouch_PT_79F72x_V1.01.c: 502: }
  4777                           ;CMS_CheckTouch_PT_79F72x_V1.01.c: 503: KHaveC = 0;
  4778  01BE  01C9               	clrf	___CMS_CheckOnceResult@KHaveC
  4779                           
  4780                           ;CMS_CheckTouch_PT_79F72x_V1.01.c: 504: KHaveTemp = KeyHave[cnt];
  4781  01BF  084F               	movf	___CMS_CheckOnceResult@cnt,w
  4782  01C0  3EC0               	addlw	192
  4783  01C1  0084               	movwf	4
  4784  01C2  0800               	movf	0,w
  4785  01C3  00CA               	movwf	___CMS_CheckOnceResult@KHaveTemp
  4786                           
  4787                           ;CMS_CheckTouch_PT_79F72x_V1.01.c: 505: for(templ = 0; templ < KeyShakeCounter; templ++)
  4788  01C4  01CD               	clrf	___CMS_CheckOnceResult@templ
  4789  01C5                     i1l6176:	
  4790                           
  4791                           ;CMS_CheckTouch_PT_79F72x_V1.01.c: 506: {
  4792                           ;CMS_CheckTouch_PT_79F72x_V1.01.c: 507: if(KHaveTemp & 0x01)
  4793  01C5  184A               	btfsc	___CMS_CheckOnceResult@KHaveTemp,0
  4794                           
  4795                           ;CMS_CheckTouch_PT_79F72x_V1.01.c: 508: {
  4796                           ;CMS_CheckTouch_PT_79F72x_V1.01.c: 509: KHaveC++;
  4797  01C6  0AC9               	incf	___CMS_CheckOnceResult@KHaveC,f
  4798  01C7  3002               	movlw	2
  4799                           
  4800                           ;CMS_CheckTouch_PT_79F72x_V1.01.c: 510: }
  4801                           ;CMS_CheckTouch_PT_79F72x_V1.01.c: 511: KHaveTemp >>= 1;
  4802  01C8  1003               	clrc
  4803  01C9  0CCA               	rrf	___CMS_CheckOnceResult@KHaveTemp,f
  4804  01CA  0ACD               	incf	___CMS_CheckOnceResult@templ,f
  4805  01CB  024D               	subwf	___CMS_CheckOnceResult@templ,w
  4806  01CC  1C03               	skipc
  4807  01CD  29C5               	goto	i1l6176
  4808  01CE  3002               	movlw	2
  4809  01CF  0249               	subwf	___CMS_CheckOnceResult@KHaveC,w
  4810  01D0  1C03               	skipc
  4811  01D1  29E4               	goto	i1l6179
  4812                           
  4813                           ;CMS_CheckTouch_PT_79F72x_V1.01.c: 514: {
  4814                           ;CMS_CheckTouch_PT_79F72x_V1.01.c: 515: __CMS_KeyHaveDown(cnt,flag);
  4815  01D2  084E               	movf	___CMS_CheckOnceResult@flag,w
  4816  01D3  00F0               	movwf	___CMS_KeyHaveDown@flag
  4817  01D4  084F               	movf	___CMS_CheckOnceResult@cnt,w
  4818  01D5  2222  120A  118A   	fcall	___CMS_KeyHaveDown
  4819                           
  4820                           ;CMS_CheckTouch_PT_79F72x_V1.01.c: 516: __CMS_RAMCTR = 0x04;;
  4821  01D8  3004               	movlw	4
  4822  01D9  1683               	bsf	3,5	;RP0=1, select bank3
  4823  01DA  1703               	bsf	3,6	;RP1=1, select bank3
  4824  01DB  009F               	movwf	31	;volatile
  4825                           
  4826                           ;CMS_CheckTouch_PT_79F72x_V1.01.c: 517: KeyUpShake[cnt] = 0;
  4827  01DC  1283               	bcf	3,5	;RP0=0, select bank0
  4828  01DD  1303               	bcf	3,6	;RP1=0, select bank0
  4829  01DE  084F               	movf	___CMS_CheckOnceResult@cnt,w
  4830  01DF  3EB0               	addlw	176
  4831  01E0  0084               	movwf	4
  4832  01E1  1783               	bsf	3,7	;select IRP bank3
  4833  01E2  0180               	clrf	0
  4834                           
  4835                           ;CMS_CheckTouch_PT_79F72x_V1.01.c: 518: }
  4836  01E3  2A1C               	goto	i1l6184
  4837  01E4                     i1l6179:	
  4838                           
  4839                           ;CMS_CheckTouch_PT_79F72x_V1.01.c: 519: else
  4840                           ;CMS_CheckTouch_PT_79F72x_V1.01.c: 520: {
  4841                           ;CMS_CheckTouch_PT_79F72x_V1.01.c: 521: if(KeyDownF)
  4842  01E4  1D5D               	btfss	___CMS_CheckOnceResult@KeyDownF/(0+8),___CMS_CheckOnceResult@KeyDownF& (0+7)
  4843  01E5  2A1C               	goto	i1l6184
  4844                           
  4845                           ;CMS_CheckTouch_PT_79F72x_V1.01.c: 522: {
  4846                           ;CMS_CheckTouch_PT_79F72x_V1.01.c: 523: __CMS_RAMCTR = 0x04;;
  4847  01E6  3004               	movlw	4
  4848  01E7  1683               	bsf	3,5	;RP0=1, select bank3
  4849  01E8  1703               	bsf	3,6	;RP1=1, select bank3
  4850  01E9  009F               	movwf	31	;volatile
  4851  01EA  1283               	bcf	3,5	;RP0=0, select bank0
  4852  01EB  1303               	bcf	3,6	;RP1=0, select bank0
  4853  01EC  084F               	movf	___CMS_CheckOnceResult@cnt,w
  4854  01ED  3EB0               	addlw	176
  4855  01EE  0084               	movwf	4
  4856  01EF  3002               	movlw	2
  4857  01F0  1783               	bsf	3,7	;select IRP bank3
  4858  01F1  0A80               	incf	0,f
  4859  01F2  0200               	subwf	0,w
  4860  01F3  1C03               	skipc
  4861  01F4  29FA               	goto	i1l8132
  4862                           
  4863                           ;CMS_CheckTouch_PT_79F72x_V1.01.c: 525: {
  4864                           ;CMS_CheckTouch_PT_79F72x_V1.01.c: 526: KeyUpShake[cnt] = 0;
  4865  01F5  084F               	movf	___CMS_CheckOnceResult@cnt,w
  4866  01F6  3EB0               	addlw	176
  4867  01F7  0084               	movwf	4
  4868  01F8  0180               	clrf	0
  4869  01F9  2A16               	goto	L3
  4870  01FA                     i1l8132:	
  4871                           ;CMS_CheckTouch_PT_79F72x_V1.01.c: 528: }
  4872                           
  4873                           ;CMS_CheckTouch_PT_79F72x_V1.01.c: 527: __CMS_KeyOpen(cnt,flag);
  4874                           
  4875                           
  4876                           ;CMS_CheckTouch_PT_79F72x_V1.01.c: 529: else
  4877                           ;CMS_CheckTouch_PT_79F72x_V1.01.c: 530: {
  4878                           ;CMS_CheckTouch_PT_79F72x_V1.01.c: 531: __CMS_KeyHaveDown(cnt,flag);
  4879  01FA  084E               	movf	___CMS_CheckOnceResult@flag,w
  4880  01FB  00F0               	movwf	___CMS_KeyHaveDown@flag
  4881  01FC  084F               	movf	___CMS_CheckOnceResult@cnt,w
  4882  01FD  2222  120A  118A   	fcall	___CMS_KeyHaveDown
  4883  0200  2A1C               	goto	i1l6184
  4884  0201                     L4:	
  4885                           ;CMS_CheckTouch_PT_79F72x_V1.01.c: 537: else
  4886                           ;CMS_CheckTouch_PT_79F72x_V1.01.c: 538: {
  4887                           ;CMS_CheckTouch_PT_79F72x_V1.01.c: 539: __CMS_RAMCTR = 0x02;;
  4888                           
  4889  0201  009F               	movwf	31	;volatile
  4890                           
  4891                           ;CMS_CheckTouch_PT_79F72x_V1.01.c: 540: if(++KeyNosieC[cnt] >= 20)
  4892  0202  1283               	bcf	3,5	;RP0=0, select bank0
  4893  0203  1303               	bcf	3,6	;RP1=0, select bank0
  4894  0204  084F               	movf	___CMS_CheckOnceResult@cnt,w
  4895  0205  3EE0               	addlw	224
  4896  0206  0084               	movwf	4
  4897  0207  3014               	movlw	20
  4898  0208  0A80               	incf	0,f
  4899  0209  0200               	subwf	0,w
  4900  020A  1C03               	skipc
  4901  020B  2A1C               	goto	i1l6184
  4902                           
  4903                           ;CMS_CheckTouch_PT_79F72x_V1.01.c: 541: {
  4904                           ;CMS_CheckTouch_PT_79F72x_V1.01.c: 542: KeyNosieC[cnt] = 0;
  4905  020C  084F               	movf	___CMS_CheckOnceResult@cnt,w
  4906  020D  3EE0               	addlw	224
  4907  020E  0084               	movwf	4
  4908  020F  0180               	clrf	0
  4909                           
  4910                           ;CMS_CheckTouch_PT_79F72x_V1.01.c: 543: __CMS_KeyClearOne(cnt);
  4911  0210  084F               	movf	___CMS_CheckOnceResult@cnt,w
  4912  0211  2246  120A  118A   	fcall	___CMS_KeyClearOne
  4913                           
  4914                           ;CMS_CheckTouch_PT_79F72x_V1.01.c: 544: __CMS_KeyOpen(cnt,flag);
  4915  0214  1283               	bcf	3,5	;RP0=0, select bank0
  4916  0215  1303               	bcf	3,6	;RP1=0, select bank0
  4917  0216                     L3:	
  4918  0216  084E               	movf	___CMS_CheckOnceResult@flag,w
  4919  0217  00F0               	movwf	___CMS_KeyOpen@flag
  4920  0218  084F               	movf	___CMS_CheckOnceResult@cnt,w
  4921  0219  2270  120A  118A   	fcall	___CMS_KeyOpen
  4922  021C                     i1l6184:	
  4923  021C  3004               	movlw	4
  4924  021D  0ACF               	incf	___CMS_CheckOnceResult@cnt,f
  4925  021E  024F               	subwf	___CMS_CheckOnceResult@cnt,w
  4926  021F  1803               	btfsc	3,0
  4927  0220  0008               	return
  4928  0221  2923               	goto	i1l8062
  4929  0222                     __end_of___CMS_CheckOnceResult:	
  4930  0222                     __ptext39:	
  4931 ;; *************** function ___CMS_KeyHaveDown *****************
  4932 ;; Defined at:
  4933 ;;		line 278 in file "G:\WORK\ĽĽĘőĎŕąŘ\ĎîÄżłĚĐňżŞ·˘\´ĄĂţżâłĚĐň\´ĄĂţÔ´łĚĐň\ĐÂ´ĄĂţÔ´łĚĐň\CMS79F72x\±ę×Ľ\CÓďŃÔ\CMS_CheckTou
      +ch_PT_79F72x_V1.01(Ô´)\CMS_CheckTouch_PT_79F72x_V1.01.c"
  4934 ;; Parameters:    Size  Location     Type
  4935 ;;  cnt             1    wreg     unsigned char 
  4936 ;;  flag            1    0[COMMON] unsigned char 
  4937 ;; Auto vars:     Size  Location     Type
  4938 ;;  cnt             1    1[COMMON] unsigned char 
  4939 ;; Return value:  Size  Location     Type
  4940 ;;                  1    wreg      void 
  4941 ;; Registers used:
  4942 ;;		wreg, status,2, status,0
  4943 ;; Tracked objects:
  4944 ;;		On entry : 300/800
  4945 ;;		On exit  : 300/0
  4946 ;;		Unchanged: 0/0
  4947 ;; Data sizes:     COMMON   BANK0   BANK1   BANK2
  4948 ;;      Params:         1       0       0       0
  4949 ;;      Locals:         1       0       0       0
  4950 ;;      Temps:          0       0       0       0
  4951 ;;      Totals:         2       0       0       0
  4952 ;;Total ram usage:        2 bytes
  4953 ;; Hardware stack levels used:    1
  4954 ;; This function calls:
  4955 ;;		Nothing
  4956 ;; This function is called by:
  4957 ;;		___CMS_CheckOnceResult
  4958 ;; This function uses a non-reentrant model
  4959 ;;
  4960                           
  4961                           
  4962                           ;psect for function ___CMS_KeyHaveDown
  4963  0222                     ___CMS_KeyHaveDown:	
  4964                           
  4965                           ;incstack = 0
  4966                           ; Regs used in ___CMS_KeyHaveDown: [wreg+status,2+status,0]
  4967                           ;___CMS_KeyHaveDown@cnt stored from wreg
  4968  0222  00F1               	movwf	___CMS_KeyHaveDown@cnt
  4969                           
  4970                           ;CMS_CheckTouch_PT_79F72x_V1.01.c: 280: __CMS_RAMCTR = 0x04;;
  4971  0223  3004               	movlw	4
  4972  0224  1683               	bsf	3,5	;RP0=1, select bank3
  4973  0225  1703               	bsf	3,6	;RP1=1, select bank3
  4974  0226  009F               	movwf	31	;volatile
  4975                           
  4976                           ;CMS_CheckTouch_PT_79F72x_V1.01.c: 281: KeyCounter++;
  4977  0227  0AE4               	incf	100,f	;volatile
  4978                           
  4979                           ;CMS_CheckTouch_PT_79F72x_V1.01.c: 282: if(cnt&0x08)
  4980  0228  1DF1               	btfss	___CMS_KeyHaveDown@cnt,3
  4981  0229  2A2F               	goto	i1l7802
  4982                           
  4983                           ;CMS_CheckTouch_PT_79F72x_V1.01.c: 283: {
  4984                           ;CMS_CheckTouch_PT_79F72x_V1.01.c: 284: KeyFlag[1] |= flag;
  4985  022A  0870               	movf	___CMS_KeyHaveDown@flag,w
  4986  022B  1283               	bcf	3,5	;RP0=0, select bank0
  4987  022C  1303               	bcf	3,6	;RP1=0, select bank0
  4988  022D  04AE               	iorwf	_KeyFlag+1,f	;volatile
  4989                           
  4990                           ;CMS_CheckTouch_PT_79F72x_V1.01.c: 285: }
  4991  022E  0008               	return
  4992  022F                     i1l7802:	
  4993                           
  4994                           ;CMS_CheckTouch_PT_79F72x_V1.01.c: 286: else
  4995                           ;CMS_CheckTouch_PT_79F72x_V1.01.c: 287: {
  4996                           ;CMS_CheckTouch_PT_79F72x_V1.01.c: 288: KeyFlag[0] |= flag;
  4997  022F  0870               	movf	___CMS_KeyHaveDown@flag,w
  4998  0230  1283               	bcf	3,5	;RP0=0, select bank0
  4999  0231  1303               	bcf	3,6	;RP1=0, select bank0
  5000  0232  04AD               	iorwf	_KeyFlag,f	;volatile
  5001  0233  0008               	return
  5002  0234                     __end_of___CMS_KeyHaveDown:	
  5003  0234                     __ptext42:	
  5004 ;; *************** function ___CMS_KeyIsIn *****************
  5005 ;; Defined at:
  5006 ;;		line 236 in file "G:\WORK\ĽĽĘőĎŕąŘ\ĎîÄżłĚĐňżŞ·˘\´ĄĂţżâłĚĐň\´ĄĂţÔ´łĚĐň\ĐÂ´ĄĂţÔ´łĚĐň\CMS79F72x\±ę×Ľ\CÓďŃÔ\CMS_CheckTou
      +ch_PT_79F72x_V1.01(Ô´)\CMS_CheckTouch_PT_79F72x_V1.01.c"
  5007 ;; Parameters:    Size  Location     Type
  5008 ;;  cnt             1    wreg     unsigned char 
  5009 ;; Auto vars:     Size  Location     Type
  5010 ;;  cnt             1    1[COMMON] unsigned char 
  5011 ;;  i               1    0[COMMON] unsigned char 
  5012 ;; Return value:  Size  Location     Type
  5013 ;;                  1    wreg      unsigned char 
  5014 ;; Registers used:
  5015 ;;		wreg, fsr0l, fsr0h, status,2, status,0, pclath
  5016 ;; Tracked objects:
  5017 ;;		On entry : B00/800
  5018 ;;		On exit  : B00/800
  5019 ;;		Unchanged: 800/0
  5020 ;; Data sizes:     COMMON   BANK0   BANK1   BANK2
  5021 ;;      Params:         0       0       0       0
  5022 ;;      Locals:         2       0       0       0
  5023 ;;      Temps:          0       0       0       0
  5024 ;;      Totals:         2       0       0       0
  5025 ;;Total ram usage:        2 bytes
  5026 ;; Hardware stack levels used:    2
  5027 ;; This function calls:
  5028 ;;		Nothing
  5029 ;; This function is called by:
  5030 ;;		___CMS_CheckOnceResult
  5031 ;;		___CMS_CheckKeyOldValue
  5032 ;; This function uses a non-reentrant model
  5033 ;;
  5034                           
  5035                           
  5036                           ;psect for function ___CMS_KeyIsIn
  5037  0234                     ___CMS_KeyIsIn:	
  5038                           
  5039                           ;incstack = 0
  5040 ;; hardware stack exceeded
  5041                           ; Regs used in ___CMS_KeyIsIn: [wreg-fsr0h+status,2+status,0+pclath]
  5042                           ;___CMS_KeyIsIn@cnt stored from wreg
  5043  0234  00F1               	movwf	___CMS_KeyIsIn@cnt
  5044                           
  5045                           ;CMS_CheckTouch_PT_79F72x_V1.01.c: 238: unsigned char i = (unsigned char)(__CMS_Table_Ke
      +                          yFalg[(unsigned char)(cnt&0x7)]);
  5046  0235  3907               	andlw	7
  5047  0236  3E0B               	addlw	low ((___CMS_Table_KeyFalg-__stringbase)| (0+32768))
  5048  0237  0084               	movwf	4
  5049  0238  120A  158A  2000  120A  118A  	fcall	stringdir
  5050  023D  00F0               	movwf	___CMS_KeyIsIn@i
  5051                           
  5052                           ;CMS_CheckTouch_PT_79F72x_V1.01.c: 240: if(cnt&0x8)
  5053  023E  1DF1               	btfss	___CMS_KeyIsIn@cnt,3
  5054  023F  2A42               	goto	i1l7780
  5055                           
  5056                           ;CMS_CheckTouch_PT_79F72x_V1.01.c: 241: {
  5057                           ;CMS_CheckTouch_PT_79F72x_V1.01.c: 242: i &= KeyFlag[1];
  5058  0240  082E               	movf	_KeyFlag+1,w	;volatile
  5059  0241  2A43               	goto	L8
  5060  0242                     i1l7780:	
  5061                           ;CMS_CheckTouch_PT_79F72x_V1.01.c: 243: }
  5062                           
  5063                           
  5064                           ;CMS_CheckTouch_PT_79F72x_V1.01.c: 244: else
  5065                           ;CMS_CheckTouch_PT_79F72x_V1.01.c: 245: {
  5066                           ;CMS_CheckTouch_PT_79F72x_V1.01.c: 246: i &= KeyFlag[0];
  5067  0242  082D               	movf	_KeyFlag,w	;volatile
  5068  0243                     L8:	
  5069  0243  05F0               	andwf	___CMS_KeyIsIn@i,f
  5070                           
  5071                           ;CMS_CheckTouch_PT_79F72x_V1.01.c: 247: }
  5072                           ;CMS_CheckTouch_PT_79F72x_V1.01.c: 248: return i;
  5073  0244  0870               	movf	___CMS_KeyIsIn@i,w
  5074  0245  0008               	return
  5075  0246                     __end_of___CMS_KeyIsIn:	
  5076  0246                     __ptext40:	
  5077 ;; *************** function ___CMS_KeyClearOne *****************
  5078 ;; Defined at:
  5079 ;;		line 298 in file "G:\WORK\ĽĽĘőĎŕąŘ\ĎîÄżłĚĐňżŞ·˘\´ĄĂţżâłĚĐň\´ĄĂţÔ´łĚĐň\ĐÂ´ĄĂţÔ´łĚĐň\CMS79F72x\±ę×Ľ\CÓďŃÔ\CMS_CheckTou
      +ch_PT_79F72x_V1.01(Ô´)\CMS_CheckTouch_PT_79F72x_V1.01.c"
  5080 ;; Parameters:    Size  Location     Type
  5081 ;;  cnt             1    wreg     unsigned char 
  5082 ;; Auto vars:     Size  Location     Type
  5083 ;;  cnt             1    2[COMMON] unsigned char 
  5084 ;; Return value:  Size  Location     Type
  5085 ;;                  1    wreg      void 
  5086 ;; Registers used:
  5087 ;;		wreg, fsr0l, fsr0h, status,2, status,0
  5088 ;; Tracked objects:
  5089 ;;		On entry : 0/0
  5090 ;;		On exit  : B00/B00
  5091 ;;		Unchanged: 0/0
  5092 ;; Data sizes:     COMMON   BANK0   BANK1   BANK2
  5093 ;;      Params:         0       0       0       0
  5094 ;;      Locals:         1       0       0       0
  5095 ;;      Temps:          2       0       0       0
  5096 ;;      Totals:         3       0       0       0
  5097 ;;Total ram usage:        3 bytes
  5098 ;; Hardware stack levels used:    1
  5099 ;; This function calls:
  5100 ;;		Nothing
  5101 ;; This function is called by:
  5102 ;;		___CMS_KeyStopClear
  5103 ;;		___CMS_CheckOnceResult
  5104 ;; This function uses a non-reentrant model
  5105 ;;
  5106                           
  5107                           
  5108                           ;psect for function ___CMS_KeyClearOne
  5109  0246                     ___CMS_KeyClearOne:	
  5110                           
  5111                           ;incstack = 0
  5112                           ; Regs used in ___CMS_KeyClearOne: [wreg-fsr0h+status,2+status,0]
  5113                           ;___CMS_KeyClearOne@cnt stored from wreg
  5114  0246  00F2               	movwf	___CMS_KeyClearOne@cnt
  5115                           
  5116                           ;CMS_CheckTouch_PT_79F72x_V1.01.c: 300: __CMS_RAMCTR = 0x01;;
  5117  0247  3001               	movlw	1
  5118  0248  1683               	bsf	3,5	;RP0=1, select bank3
  5119  0249  1703               	bsf	3,6	;RP1=1, select bank3
  5120  024A  009F               	movwf	31	;volatile
  5121                           
  5122                           ;CMS_CheckTouch_PT_79F72x_V1.01.c: 301: KeyHave[cnt] = 0;
  5123  024B  0872               	movf	___CMS_KeyClearOne@cnt,w
  5124  024C  3EC0               	addlw	192
  5125  024D  0084               	movwf	4
  5126  024E  3004               	movlw	4
  5127  024F  1783               	bsf	3,7	;select IRP bank3
  5128  0250  0180               	clrf	0
  5129                           
  5130                           ;CMS_CheckTouch_PT_79F72x_V1.01.c: 302: __CMS_RAMCTR = 0x04;;
  5131  0251  009F               	movwf	31	;volatile
  5132                           
  5133                           ;CMS_CheckTouch_PT_79F72x_V1.01.c: 303: KeyUpShake[cnt] = 0;
  5134  0252  0872               	movf	___CMS_KeyClearOne@cnt,w
  5135  0253  3EB0               	addlw	176
  5136  0254  0084               	movwf	4
  5137  0255  0180               	clrf	0
  5138                           
  5139                           ;CMS_CheckTouch_PT_79F72x_V1.01.c: 304: KeyBaseCnt[cnt] = 0;
  5140  0256  0872               	movf	___CMS_KeyClearOne@cnt,w
  5141  0257  3EC0               	addlw	192
  5142  0258  0084               	movwf	4
  5143  0259  3002               	movlw	2
  5144  025A  0180               	clrf	0
  5145                           
  5146                           ;CMS_CheckTouch_PT_79F72x_V1.01.c: 305: __CMS_RAMCTR = 0x02;;
  5147  025B  009F               	movwf	31	;volatile
  5148                           
  5149                           ;CMS_CheckTouch_PT_79F72x_V1.01.c: 306: KeyOldValue[cnt] = 0;
  5150  025C  1003               	clrc
  5151  025D  0D72               	rlf	___CMS_KeyClearOne@cnt,w
  5152  025E  3EA0               	addlw	160
  5153  025F  0084               	movwf	4
  5154  0260  300B               	movlw	11
  5155  0261  0180               	clrf	0
  5156  0262  0A84               	incf	4,f
  5157  0263  0180               	clrf	0
  5158                           
  5159                           ;CMS_CheckTouch_PT_79F72x_V1.01.c: 307: KeyReference[cnt] = 2048+512+256;
  5160  0264  01F0               	clrf	??___CMS_KeyClearOne
  5161  0265  00F1               	movwf	??___CMS_KeyClearOne+1
  5162  0266  1003               	clrc
  5163  0267  0D72               	rlf	___CMS_KeyClearOne@cnt,w
  5164  0268  3EC0               	addlw	192
  5165  0269  0084               	movwf	4
  5166  026A  0870               	movf	??___CMS_KeyClearOne,w
  5167  026B  0080               	movwf	0
  5168  026C  0A84               	incf	4,f
  5169  026D  0871               	movf	??___CMS_KeyClearOne+1,w
  5170  026E  0080               	movwf	0
  5171  026F  0008               	return
  5172  0270                     __end_of___CMS_KeyClearOne:	
  5173  0270                     __ptext38:	
  5174 ;; *************** function ___CMS_KeyOpen *****************
  5175 ;; Defined at:
  5176 ;;		line 258 in file "G:\WORK\ĽĽĘőĎŕąŘ\ĎîÄżłĚĐňżŞ·˘\´ĄĂţżâłĚĐň\´ĄĂţÔ´łĚĐň\ĐÂ´ĄĂţÔ´łĚĐň\CMS79F72x\±ę×Ľ\CÓďŃÔ\CMS_CheckTou
      +ch_PT_79F72x_V1.01(Ô´)\CMS_CheckTouch_PT_79F72x_V1.01.c"
  5177 ;; Parameters:    Size  Location     Type
  5178 ;;  cnt             1    wreg     unsigned char 
  5179 ;;  flag            1    0[COMMON] unsigned char 
  5180 ;; Auto vars:     Size  Location     Type
  5181 ;;  cnt             1    1[COMMON] unsigned char 
  5182 ;; Return value:  Size  Location     Type
  5183 ;;                  1    wreg      void 
  5184 ;; Registers used:
  5185 ;;		wreg, status,2, status,0
  5186 ;; Tracked objects:
  5187 ;;		On entry : B00/800
  5188 ;;		On exit  : B00/800
  5189 ;;		Unchanged: 800/0
  5190 ;; Data sizes:     COMMON   BANK0   BANK1   BANK2
  5191 ;;      Params:         1       0       0       0
  5192 ;;      Locals:         1       0       0       0
  5193 ;;      Temps:          0       0       0       0
  5194 ;;      Totals:         2       0       0       0
  5195 ;;Total ram usage:        2 bytes
  5196 ;; Hardware stack levels used:    1
  5197 ;; This function calls:
  5198 ;;		Nothing
  5199 ;; This function is called by:
  5200 ;;		___CMS_CheckOnceResult
  5201 ;; This function uses a non-reentrant model
  5202 ;;
  5203                           
  5204                           
  5205                           ;psect for function ___CMS_KeyOpen
  5206  0270                     ___CMS_KeyOpen:	
  5207                           
  5208                           ;incstack = 0
  5209                           ; Regs used in ___CMS_KeyOpen: [wreg+status,2+status,0]
  5210                           ;___CMS_KeyOpen@cnt stored from wreg
  5211  0270  00F1               	movwf	___CMS_KeyOpen@cnt
  5212                           
  5213                           ;CMS_CheckTouch_PT_79F72x_V1.01.c: 260: flag = (unsigned char)(flag^0xff);
  5214  0271  30FF               	movlw	255
  5215  0272  06F0               	xorwf	___CMS_KeyOpen@flag,f
  5216                           
  5217                           ;CMS_CheckTouch_PT_79F72x_V1.01.c: 261: if(cnt&0x08)
  5218  0273  1DF1               	btfss	___CMS_KeyOpen@cnt,3
  5219  0274  2A78               	goto	i1l7792
  5220                           
  5221                           ;CMS_CheckTouch_PT_79F72x_V1.01.c: 262: {
  5222                           ;CMS_CheckTouch_PT_79F72x_V1.01.c: 263: KeyFlag[1] &= flag;
  5223  0275  0870               	movf	___CMS_KeyOpen@flag,w
  5224  0276  05AE               	andwf	_KeyFlag+1,f	;volatile
  5225                           
  5226                           ;CMS_CheckTouch_PT_79F72x_V1.01.c: 264: }
  5227  0277  0008               	return
  5228  0278                     i1l7792:	
  5229                           
  5230                           ;CMS_CheckTouch_PT_79F72x_V1.01.c: 265: else
  5231                           ;CMS_CheckTouch_PT_79F72x_V1.01.c: 266: {
  5232                           ;CMS_CheckTouch_PT_79F72x_V1.01.c: 267: KeyFlag[0] &= flag;
  5233  0278  0870               	movf	___CMS_KeyOpen@flag,w
  5234  0279  05AD               	andwf	_KeyFlag,f	;volatile
  5235  027A  0008               	return
  5236  027B                     __end_of___CMS_KeyOpen:	
  5237  027B                     __ptext34:	
  5238 ;; *************** function ___CMS_KeyModeSet *****************
  5239 ;; Defined at:
  5240 ;;		line 335 in file "G:\WORK\ĽĽĘőĎŕąŘ\ĎîÄżłĚĐňżŞ·˘\´ĄĂţżâłĚĐň\´ĄĂţÔ´łĚĐň\ĐÂ´ĄĂţÔ´łĚĐň\CMS79F72x\±ę×Ľ\CÓďŃÔ\CMS_CheckTou
      +ch_PT_79F72x_V1.01(Ô´)\CMS_CheckTouch_PT_79F72x_V1.01.c"
  5241 ;; Parameters:    Size  Location     Type
  5242 ;;		None
  5243 ;; Auto vars:     Size  Location     Type
  5244 ;;  DLTempl         1    0[COMMON] unsigned char 
  5245 ;; Return value:  Size  Location     Type
  5246 ;;                  1    wreg      void 
  5247 ;; Registers used:
  5248 ;;		wreg, status,2, status,0
  5249 ;; Tracked objects:
  5250 ;;		On entry : 0/0
  5251 ;;		On exit  : 0/0
  5252 ;;		Unchanged: 0/0
  5253 ;; Data sizes:     COMMON   BANK0   BANK1   BANK2
  5254 ;;      Params:         0       0       0       0
  5255 ;;      Locals:         1       0       0       0
  5256 ;;      Temps:          0       0       0       0
  5257 ;;      Totals:         1       0       0       0
  5258 ;;Total ram usage:        1 bytes
  5259 ;; Hardware stack levels used:    1
  5260 ;; This function calls:
  5261 ;;		Nothing
  5262 ;; This function is called by:
  5263 ;;		___CMS_CurAdjust
  5264 ;;		___CMS_Key_UNNOL_Check
  5265 ;;		___CMS_CheckTouchKey
  5266 ;; This function uses a non-reentrant model
  5267 ;;
  5268                           
  5269                           
  5270                           ;psect for function ___CMS_KeyModeSet
  5271  027B                     ___CMS_KeyModeSet:	
  5272                           
  5273                           ;CMS_CheckTouch_PT_79F72x_V1.01.c: 337: unsigned char DLTempl;
  5274                           ;CMS_CheckTouch_PT_79F72x_V1.01.c: 339: __CMS_RAMCTR = 0x04;;
  5275                           
  5276                           ;incstack = 0
  5277                           ; Regs used in ___CMS_KeyModeSet: [wreg+status,2+status,0]
  5278  027B  3004               	movlw	4
  5279  027C  1683               	bsf	3,5	;RP0=1, select bank3
  5280  027D  1703               	bsf	3,6	;RP1=1, select bank3
  5281  027E  009F               	movwf	31	;volatile
  5282                           
  5283                           ;CMS_CheckTouch_PT_79F72x_V1.01.c: 340: __CMS_KEYCON0 = (0 << 6) | (0 << 3);
  5284  027F  0190               	clrf	16	;volatile
  5285                           
  5286                           ;CMS_CheckTouch_PT_79F72x_V1.01.c: 342: __CMS_KEYCON2 |= 1;
  5287  0280  1412               	bsf	18,0	;volatile
  5288                           
  5289                           ;CMS_CheckTouch_PT_79F72x_V1.01.c: 343: __CMS_KEYCON2 &= 0B00000001;
  5290  0281  3001               	movlw	1
  5291  0282  0592               	andwf	18,f	;volatile
  5292                           
  5293                           ;CMS_CheckTouch_PT_79F72x_V1.01.c: 344: __CMS_KEYCON2 |= (1 << 1);
  5294  0283  1492               	bsf	18,1	;volatile
  5295                           
  5296                           ;CMS_CheckTouch_PT_79F72x_V1.01.c: 346: __CMS_KEYCON3 = (1 << 7) | (3 << 5);
  5297  0284  30E0               	movlw	224
  5298  0285  0093               	movwf	19	;volatile
  5299                           
  5300                           ;CMS_CheckTouch_PT_79F72x_V1.01.c: 347: __CMS_KEYCON4 = (0 << 7) | (3 << 2) | 1
  5301                           ;CMS_CheckTouch_PT_79F72x_V1.01.c: 348: + __CMS_32M_CT;
  5302  0286  0863               	movf	99,w	;volatile
  5303  0287  3E01               	addlw	1
  5304  0288  380C               	iorlw	12
  5305  0289  0094               	movwf	20	;volatile
  5306  028A  3040               	movlw	64
  5307  028B  0095               	movwf	21	;volatile
  5308                           
  5309                           ;CMS_CheckTouch_PT_79F72x_V1.01.c: 351: __CMS_KEYCON8 = (2 << 6) | 1 | 0x18;
  5310  028C  3099               	movlw	153
  5311  028D  0098               	movwf	24	;volatile
  5312                           
  5313                           ;CMS_CheckTouch_PT_79F72x_V1.01.c: 352: __CMS_KEYCON1 = 0x10;
  5314  028E  3010               	movlw	16
  5315  028F  0091               	movwf	17	;volatile
  5316                           
  5317                           ;CMS_CheckTouch_PT_79F72x_V1.01.c: 353: __CMS_KEYCON2 += __CMS_32M_Dat;
  5318  0290  0862               	movf	98,w	;volatile
  5319  0291  0792               	addwf	18,f	;volatile
  5320                           
  5321                           ;CMS_CheckTouch_PT_79F72x_V1.01.c: 354: __CMS_KEYCON3 += 2;
  5322  0292  0A93               	incf	19,f
  5323  0293  0A93               	incf	19,f	;volatile
  5324                           
  5325                           ;CMS_CheckTouch_PT_79F72x_V1.01.c: 358: DLTempl = 20;
  5326  0294  3014               	movlw	20
  5327  0295  00F0               	movwf	___CMS_KeyModeSet@DLTempl
  5328  0296                     i1l7842:	
  5329                           ;CMS_CheckTouch_PT_79F72x_V1.01.c: 359: while(DLTempl--);
  5330                           
  5331  0296  03F0               	decf	___CMS_KeyModeSet@DLTempl,f
  5332  0297  0F70               	incfsz	___CMS_KeyModeSet@DLTempl,w
  5333  0298  2A96               	goto	i1l7842
  5334  0299  0008               	return
  5335  029A                     __end_of___CMS_KeyModeSet:	
  5336  029A                     __ptext33:	
  5337 ;; *************** function ___CMS_CurAdjust *****************
  5338 ;; Defined at:
  5339 ;;		line 679 in file "G:\WORK\ĽĽĘőĎŕąŘ\ĎîÄżłĚĐňżŞ·˘\´ĄĂţżâłĚĐň\´ĄĂţÔ´łĚĐň\ĐÂ´ĄĂţÔ´łĚĐň\CMS79F72x\±ę×Ľ\CÓďŃÔ\CMS_CheckTou
      +ch_PT_79F72x_V1.01(Ô´)\CMS_CheckTouch_PT_79F72x_V1.01.c"
  5340 ;; Parameters:    Size  Location     Type
  5341 ;;		None
  5342 ;; Auto vars:     Size  Location     Type
  5343 ;;  KeySumTemp      2    3[COMMON] unsigned int 
  5344 ;;  cnt             1    2[COMMON] unsigned char 
  5345 ;; Return value:  Size  Location     Type
  5346 ;;                  1    wreg      void 
  5347 ;; Registers used:
  5348 ;;		wreg, fsr0l, fsr0h, status,2, status,0, pclath, cstack
  5349 ;; Tracked objects:
  5350 ;;		On entry : 0/0
  5351 ;;		On exit  : 0/0
  5352 ;;		Unchanged: 0/0
  5353 ;; Data sizes:     COMMON   BANK0   BANK1   BANK2
  5354 ;;      Params:         0       0       0       0
  5355 ;;      Locals:         3       0       0       0
  5356 ;;      Temps:          1       0       0       0
  5357 ;;      Totals:         4       0       0       0
  5358 ;;Total ram usage:        4 bytes
  5359 ;; Hardware stack levels used:    1
  5360 ;; Hardware stack levels required when called:    2
  5361 ;; This function calls:
  5362 ;;		___CMS_CurAdjMode
  5363 ;;		___CMS_KeyModeSet
  5364 ;; This function is called by:
  5365 ;;		___CMS_CheckTouchKey
  5366 ;; This function uses a non-reentrant model
  5367 ;;
  5368                           
  5369                           
  5370                           ;psect for function ___CMS_CurAdjust
  5371  029A                     ___CMS_CurAdjust:	
  5372  029A  3004               	movlw	4
  5373                           
  5374                           ;CMS_CheckTouch_PT_79F72x_V1.01.c: 682: unsigned int KeySumTemp = 0;
  5375                           
  5376                           ;incstack = 0
  5377 ;; hardware stack exceeded
  5378                           ; Regs used in ___CMS_CurAdjust: [wreg-fsr0h+status,2+status,0+pclath+cstack]
  5379  029B  01F3               	clrf	___CMS_CurAdjust@KeySumTemp
  5380  029C  01F4               	clrf	___CMS_CurAdjust@KeySumTemp+1
  5381                           
  5382                           ;CMS_CheckTouch_PT_79F72x_V1.01.c: 683: static unsigned char CurAdjLmtTimec = 0;
  5383                           ;CMS_CheckTouch_PT_79F72x_V1.01.c: 685: __CMS_RAMCTR = 0x04;;
  5384  029D  1683               	bsf	3,5	;RP0=1, select bank3
  5385  029E  1703               	bsf	3,6	;RP1=1, select bank3
  5386  029F  009F               	movwf	31	;volatile
  5387                           
  5388                           ;CMS_CheckTouch_PT_79F72x_V1.01.c: 686: if(!CurAdjustSDfst)
  5389  02A0  1283               	bcf	3,5	;RP0=0, select bank0
  5390  02A1  1303               	bcf	3,6	;RP1=0, select bank0
  5391  02A2  1A5D               	btfsc	_CurAdjustSDfst/(0+8),_CurAdjustSDfst& (0+7)	;volatile
  5392  02A3  2B04               	goto	i1l6221
  5393                           
  5394                           ;CMS_CheckTouch_PT_79F72x_V1.01.c: 687: {
  5395                           ;CMS_CheckTouch_PT_79F72x_V1.01.c: 688: CurAdjustSDfst = 1;
  5396  02A4  165D               	bsf	_CurAdjustSDfst/(0+8),_CurAdjustSDfst& (0+7)	;volatile
  5397  02A5  2B00               	goto	i1l8210
  5398  02A6                     i1l8214:	
  5399                           
  5400                           ;CMS_CheckTouch_PT_79F72x_V1.01.c: 695: {
  5401                           ;CMS_CheckTouch_PT_79F72x_V1.01.c: 696: CurAdjLmtTimec = 0;
  5402  02A6  1283               	bcf	3,5	;RP0=0, select bank0
  5403  02A7  1303               	bcf	3,6	;RP1=0, select bank0
  5404  02A8  01B3               	clrf	___CMS_CurAdjust@CurAdjLmtTimec
  5405                           
  5406                           ;CMS_CheckTouch_PT_79F72x_V1.01.c: 697: KeySumTemp = (unsigned int)(__CMS_KDARGH << 8) |
      +                           __CMS_KDARGL;
  5407  02A9  1683               	bsf	3,5	;RP0=1, select bank3
  5408  02AA  1703               	bsf	3,6	;RP1=1, select bank3
  5409  02AB  081E               	movf	30,w	;volatile
  5410  02AC  00F4               	movwf	___CMS_CurAdjust@KeySumTemp+1
  5411  02AD  01F3               	clrf	___CMS_CurAdjust@KeySumTemp
  5412  02AE  081D               	movf	29,w	;volatile
  5413  02AF  04F3               	iorwf	___CMS_CurAdjust@KeySumTemp,f
  5414                           
  5415                           ;CMS_CheckTouch_PT_79F72x_V1.01.c: 698: if(__CMS_KEYSA & 0x08)
  5416  02B0  1D85               	btfss	5,3	;volatile
  5417  02B1  2AE6               	goto	i1l8246
  5418                           
  5419                           ;CMS_CheckTouch_PT_79F72x_V1.01.c: 699: {
  5420                           ;CMS_CheckTouch_PT_79F72x_V1.01.c: 700: if(KeySumTemp <= (2048 + 96) && (KeySumTemp >= (
      +                          2048 - 96)))
  5421  02B2  3008               	movlw	8
  5422  02B3  0274               	subwf	___CMS_CurAdjust@KeySumTemp+1,w
  5423  02B4  3061               	movlw	97
  5424  02B5  1903               	skipnz
  5425  02B6  0273               	subwf	___CMS_CurAdjust@KeySumTemp,w
  5426  02B7  1803               	skipnc
  5427  02B8  2B00               	goto	i1l8210
  5428  02B9  3007               	movlw	7
  5429  02BA  0274               	subwf	___CMS_CurAdjust@KeySumTemp+1,w
  5430  02BB  30A0               	movlw	160
  5431  02BC  1903               	skipnz
  5432  02BD  0273               	subwf	___CMS_CurAdjust@KeySumTemp,w
  5433  02BE  1C03               	skipc
  5434  02BF  2B00               	goto	i1l8210
  5435  02C0  2ACB               	goto	i1l8252
  5436  02C1                     i1l8248:	
  5437                           ;CMS_CheckTouch_PT_79F72x_V1.01.c: 701: {
  5438                           ;CMS_CheckTouch_PT_79F72x_V1.01.c: 702: ITRIM_Ram[KeyAdrCnt] = __CMS_KEYCON6;
  5439                           
  5440  02C1  3005               	movlw	5
  5441  02C2  0274               	subwf	___CMS_CurAdjust@KeySumTemp+1,w
  5442  02C3  3001               	movlw	1
  5443  02C4  1903               	skipnz
  5444  02C5  0273               	subwf	___CMS_CurAdjust@KeySumTemp,w
  5445  02C6  1C03               	skipc
  5446  02C7  2AED               	goto	i1l8268
  5447  02C8  0A16               	incf	22,w	;volatile
  5448  02C9  1903               	btfsc	3,2
  5449  02CA  2AED               	goto	i1l8268
  5450  02CB                     i1l8252:	
  5451                           
  5452                           ;CMS_CheckTouch_PT_79F72x_V1.01.c: 726: {
  5453                           ;CMS_CheckTouch_PT_79F72x_V1.01.c: 727: ITRIM_Ram[KeyAdrCnt] = __CMS_KEYCON6;
  5454  02CB  1283               	bcf	3,5	;RP0=0, select bank0
  5455  02CC  1303               	bcf	3,6	;RP1=0, select bank0
  5456  02CD  0836               	movf	_KeyAdrCnt,w
  5457  02CE  3EA0               	addlw	160
  5458  02CF  0084               	movwf	4
  5459  02D0  1683               	bsf	3,5	;RP0=1, select bank3
  5460  02D1  1703               	bsf	3,6	;RP1=1, select bank3
  5461  02D2  0816               	movf	22,w	;volatile
  5462  02D3  1783               	bsf	3,7	;select IRP bank3
  5463  02D4  0080               	movwf	0
  5464  02D5  3004               	movlw	4
  5465  02D6  1283               	bcf	3,5	;RP0=0, select bank0
  5466  02D7  1303               	bcf	3,6	;RP1=0, select bank0
  5467  02D8  0AB6               	incf	_KeyAdrCnt,f	;volatile
  5468  02D9  0236               	subwf	_KeyAdrCnt,w	;volatile
  5469  02DA  1C03               	skipc
  5470  02DB  2B00               	goto	i1l8210
  5471                           
  5472                           ;CMS_CheckTouch_PT_79F72x_V1.01.c: 704: {
  5473                           ;CMS_CheckTouch_PT_79F72x_V1.01.c: 705: KeyAdrCnt = 0;
  5474  02DC  01B6               	clrf	_KeyAdrCnt	;volatile
  5475                           
  5476                           ;CMS_CheckTouch_PT_79F72x_V1.01.c: 706: CurCheckOver = 1;
  5477  02DD  16DD               	bsf	_CurCheckOver/(0+8),_CurCheckOver& (0+7)	;volatile
  5478                           
  5479                           ;CMS_CheckTouch_PT_79F72x_V1.01.c: 707: __CMS_KEYSA = 0;
  5480  02DE  1683               	bsf	3,5	;RP0=1, select bank3
  5481  02DF  1703               	bsf	3,6	;RP1=1, select bank3
  5482  02E0  0185               	clrf	5	;volatile
  5483                           
  5484                           ;CMS_CheckTouch_PT_79F72x_V1.01.c: 708: __CMS_KeyModeSet();
  5485  02E1  227B               	fcall	___CMS_KeyModeSet
  5486                           
  5487                           ;CMS_CheckTouch_PT_79F72x_V1.01.c: 709: b_over1 = 1;
  5488  02E2  1283               	bcf	3,5	;RP0=0, select bank0
  5489  02E3  1303               	bcf	3,6	;RP1=0, select bank0
  5490  02E4  145E               	bsf	_b_over1/(0+8),_b_over1& (0+7)	;volatile
  5491                           
  5492                           ;CMS_CheckTouch_PT_79F72x_V1.01.c: 710: }
  5493  02E5  0008               	return
  5494  02E6                     i1l8246:	
  5495                           
  5496                           ;CMS_CheckTouch_PT_79F72x_V1.01.c: 723: else
  5497                           ;CMS_CheckTouch_PT_79F72x_V1.01.c: 724: {
  5498                           ;CMS_CheckTouch_PT_79F72x_V1.01.c: 725: if(((KeySumTemp < 2048+512+256) && (KeySumTemp >
      +                           2048-512-256)) && (__CMS_KEYCON6 != 0xff))
  5499  02E6  300B               	movlw	11
  5500  02E7  0274               	subwf	___CMS_CurAdjust@KeySumTemp+1,w
  5501  02E8  3000               	movlw	0
  5502  02E9  1903               	skipnz
  5503  02EA  0273               	subwf	___CMS_CurAdjust@KeySumTemp,w
  5504  02EB  1C03               	btfss	3,0
  5505  02EC  2AC1               	goto	i1l8248
  5506  02ED                     i1l8268:	
  5507                           
  5508                           ;CMS_CheckTouch_PT_79F72x_V1.01.c: 742: else
  5509                           ;CMS_CheckTouch_PT_79F72x_V1.01.c: 743: {
  5510                           ;CMS_CheckTouch_PT_79F72x_V1.01.c: 744: if(((++ __CMS_CurStep[KeyAdrCnt]) & 0x0f) > 5)
  5511  02ED  1283               	bcf	3,5	;RP0=0, select bank0
  5512  02EE  1303               	bcf	3,6	;RP1=0, select bank0
  5513  02EF  0836               	movf	_KeyAdrCnt,w
  5514  02F0  3ED0               	addlw	208
  5515  02F1  0084               	movwf	4
  5516  02F2  300F               	movlw	15
  5517  02F3  1783               	bsf	3,7	;select IRP bank3
  5518  02F4  0A80               	incf	0,f
  5519  02F5  0500               	andwf	0,w
  5520  02F6  00F1               	movwf	??___CMS_CurAdjust
  5521  02F7  3006               	movlw	6
  5522  02F8  0271               	subwf	??___CMS_CurAdjust,w
  5523  02F9  1C03               	skipc
  5524  02FA  2B00               	goto	i1l8210
  5525                           
  5526                           ;CMS_CheckTouch_PT_79F72x_V1.01.c: 745: {
  5527                           ;CMS_CheckTouch_PT_79F72x_V1.01.c: 746: __CMS_CurStep[KeyAdrCnt] = 5;
  5528  02FB  0836               	movf	_KeyAdrCnt,w
  5529  02FC  3ED0               	addlw	208
  5530  02FD  0084               	movwf	4
  5531  02FE  3005               	movlw	5
  5532  02FF  0080               	movwf	0
  5533  0300                     i1l8210:	
  5534                           
  5535                           ;CMS_CheckTouch_PT_79F72x_V1.01.c: 689: __CMS_KeyModeSet();
  5536  0300  227B               	fcall	___CMS_KeyModeSet
  5537                           
  5538                           ;CMS_CheckTouch_PT_79F72x_V1.01.c: 690: __CMS_CurAdjMode();
  5539  0301  120A  158A  2EB0   	ljmp	i1l7846
  5540  0304                     i1l6221:	
  5541                           ;CMS_CheckTouch_PT_79F72x_V1.01.c: 691: }
  5542                           
  5543                           
  5544                           ;CMS_CheckTouch_PT_79F72x_V1.01.c: 692: else
  5545                           ;CMS_CheckTouch_PT_79F72x_V1.01.c: 693: {
  5546                           ;CMS_CheckTouch_PT_79F72x_V1.01.c: 694: if(0 == (__CMS_KEYSA & 0x80))
  5547  0304  1683               	bsf	3,5	;RP0=1, select bank3
  5548  0305  1703               	bsf	3,6	;RP1=1, select bank3
  5549  0306  1F85               	btfss	5,7	;volatile
  5550  0307  2AA6               	goto	i1l8214
  5551                           
  5552                           ;CMS_CheckTouch_PT_79F72x_V1.01.c: 753: else
  5553                           ;CMS_CheckTouch_PT_79F72x_V1.01.c: 754: {
  5554                           ;CMS_CheckTouch_PT_79F72x_V1.01.c: 755: if(++CurAdjLmtTimec >= 100)
  5555  0308  3064               	movlw	100
  5556  0309  1283               	bcf	3,5	;RP0=0, select bank0
  5557  030A  1303               	bcf	3,6	;RP1=0, select bank0
  5558  030B  0AB3               	incf	___CMS_CurAdjust@CurAdjLmtTimec,f
  5559  030C  0233               	subwf	___CMS_CurAdjust@CurAdjLmtTimec,w
  5560  030D  1C03               	skipc
  5561  030E  0008               	return
  5562                           
  5563                           ;CMS_CheckTouch_PT_79F72x_V1.01.c: 756: {
  5564                           ;CMS_CheckTouch_PT_79F72x_V1.01.c: 757: CurAdjLmtTimec = 0;
  5565  030F  01B3               	clrf	___CMS_CurAdjust@CurAdjLmtTimec
  5566                           
  5567                           ;CMS_CheckTouch_PT_79F72x_V1.01.c: 758: CurAdjustSDfst = 0;
  5568  0310  125D               	bcf	_CurAdjustSDfst/(0+8),_CurAdjustSDfst& (0+7)	;volatile
  5569                           
  5570                           ;CMS_CheckTouch_PT_79F72x_V1.01.c: 759: for(cnt = 0; cnt < KeyTotalNumber; cnt++)
  5571  0311  01F2               	clrf	___CMS_CurAdjust@cnt
  5572  0312                     i1l8286:	
  5573                           
  5574                           ;CMS_CheckTouch_PT_79F72x_V1.01.c: 760: {
  5575                           ;CMS_CheckTouch_PT_79F72x_V1.01.c: 761: __CMS_CurStep[cnt] = 0;
  5576  0312  0872               	movf	___CMS_CurAdjust@cnt,w
  5577  0313  3ED0               	addlw	208
  5578  0314  0084               	movwf	4
  5579  0315  3004               	movlw	4
  5580  0316  1783               	bsf	3,7	;select IRP bank3
  5581  0317  0180               	clrf	0
  5582  0318  0AF2               	incf	___CMS_CurAdjust@cnt,f
  5583  0319  0272               	subwf	___CMS_CurAdjust@cnt,w
  5584  031A  1803               	btfsc	3,0
  5585  031B  0008               	return
  5586  031C  2B12               	goto	i1l8286
  5587  031D                     __end_of___CMS_CurAdjust:	
  5588  031D                     __ptext32:	
  5589 ;; *************** function ___CMS_KeyDatIIR *****************
  5590 ;; Defined at:
  5591 ;;		line 831 in file "G:\WORK\ĽĽĘőĎŕąŘ\ĎîÄżłĚĐňżŞ·˘\´ĄĂţżâłĚĐň\´ĄĂţÔ´łĚĐň\ĐÂ´ĄĂţÔ´łĚĐň\CMS79F72x\±ę×Ľ\CÓďŃÔ\CMS_CheckTou
      +ch_PT_79F72x_V1.01(Ô´)\CMS_CheckTouch_PT_79F72x_V1.01.c"
  5592 ;; Parameters:    Size  Location     Type
  5593 ;;		None
  5594 ;; Auto vars:     Size  Location     Type
  5595 ;;  TKOldTemp       2    2[BANK0 ] unsigned int 
  5596 ;;  TKDatTemp       2    0[BANK0 ] unsigned int 
  5597 ;;  cnt             1    4[BANK0 ] unsigned char 
  5598 ;; Return value:  Size  Location     Type
  5599 ;;                  1    wreg      void 
  5600 ;; Registers used:
  5601 ;;		wreg, fsr0l, fsr0h, status,2, status,0
  5602 ;; Tracked objects:
  5603 ;;		On entry : 300/0
  5604 ;;		On exit  : B00/800
  5605 ;;		Unchanged: 0/0
  5606 ;; Data sizes:     COMMON   BANK0   BANK1   BANK2
  5607 ;;      Params:         0       0       0       0
  5608 ;;      Locals:         0       5       0       0
  5609 ;;      Temps:         14       0       0       0
  5610 ;;      Totals:        14       5       0       0
  5611 ;;Total ram usage:       19 bytes
  5612 ;; Hardware stack levels used:    1
  5613 ;; This function calls:
  5614 ;;		Nothing
  5615 ;; This function is called by:
  5616 ;;		___CMS_CheckTouchKey
  5617 ;; This function uses a non-reentrant model
  5618 ;;
  5619                           
  5620                           
  5621                           ;psect for function ___CMS_KeyDatIIR
  5622  031D                     ___CMS_KeyDatIIR:	
  5623                           
  5624                           ;CMS_CheckTouch_PT_79F72x_V1.01.c: 833: unsigned char cnt = 0;
  5625                           
  5626                           ;incstack = 0
  5627                           ; Regs used in ___CMS_KeyDatIIR: [wreg-fsr0h+status,2+status,0]
  5628  031D  01C9               	clrf	___CMS_KeyDatIIR@cnt
  5629  031E                     i1l8346:	
  5630                           
  5631                           ;CMS_CheckTouch_PT_79F72x_V1.01.c: 837: __CMS_RAMCTR = 0x02;;
  5632  031E  3002               	movlw	2
  5633                           
  5634                           ;CMS_CheckTouch_PT_79F72x_V1.01.c: 838: TKOldTemp = KeyOldValue[cnt];
  5635  031F  2406  120A  118A   	fcall	PL2	;call to abstracted procedure
  5636  0322  1783               	bsf	3,7	;select IRP bank3
  5637  0323  0800               	movf	0,w
  5638  0324  00C7               	movwf	___CMS_KeyDatIIR@TKOldTemp
  5639  0325  0A84               	incf	4,f
  5640  0326  0800               	movf	0,w
  5641  0327  00C8               	movwf	___CMS_KeyDatIIR@TKOldTemp+1
  5642                           
  5643                           ;CMS_CheckTouch_PT_79F72x_V1.01.c: 839: __CMS_RAMCTR = 0x01;;
  5644  0328  3001               	movlw	1
  5645                           
  5646                           ;CMS_CheckTouch_PT_79F72x_V1.01.c: 840: TKDatTemp = KeySum[cnt];
  5647  0329  2406  120A  118A   	fcall	PL2	;call to abstracted procedure
  5648  032C  0800               	movf	0,w
  5649  032D  00C5               	movwf	___CMS_KeyDatIIR@TKDatTemp
  5650  032E  0A84               	incf	4,f
  5651  032F  0800               	movf	0,w
  5652  0330  00C6               	movwf	___CMS_KeyDatIIR@TKDatTemp+1
  5653                           
  5654                           ;CMS_CheckTouch_PT_79F72x_V1.01.c: 841: if((0 != TKDatTemp) && (0 != TKOldTemp))
  5655  0331  0445               	iorwf	___CMS_KeyDatIIR@TKDatTemp,w
  5656  0332  1903               	btfsc	3,2
  5657  0333  2B84               	goto	i1l8360
  5658  0334  0847               	movf	___CMS_KeyDatIIR@TKOldTemp,w
  5659  0335  0448               	iorwf	___CMS_KeyDatIIR@TKOldTemp+1,w
  5660  0336  1903               	btfsc	3,2
  5661  0337  2B84               	goto	i1l8360
  5662                           
  5663                           ;CMS_CheckTouch_PT_79F72x_V1.01.c: 842: {
  5664                           ;CMS_CheckTouch_PT_79F72x_V1.01.c: 843: KeySum[cnt] = TKDatTemp/4 + TKDatTemp/8 + TKOldT
      +                          emp/2 + TKOldTemp/8;
  5665  0338  0848               	movf	___CMS_KeyDatIIR@TKOldTemp+1,w
  5666  0339  00F1               	movwf	??___CMS_KeyDatIIR+1
  5667  033A  0847               	movf	___CMS_KeyDatIIR@TKOldTemp,w
  5668  033B  00F0               	movwf	??___CMS_KeyDatIIR
  5669  033C  1003               	clrc
  5670  033D  0CF1               	rrf	??___CMS_KeyDatIIR+1,f
  5671  033E  0CF0               	rrf	??___CMS_KeyDatIIR,f
  5672  033F  1003               	clrc
  5673  0340  0CF1               	rrf	??___CMS_KeyDatIIR+1,f
  5674  0341  0CF0               	rrf	??___CMS_KeyDatIIR,f
  5675  0342  1003               	clrc
  5676  0343  0CF1               	rrf	??___CMS_KeyDatIIR+1,f
  5677  0344  0CF0               	rrf	??___CMS_KeyDatIIR,f
  5678  0345  0848               	movf	___CMS_KeyDatIIR@TKOldTemp+1,w
  5679  0346  00F3               	movwf	??___CMS_KeyDatIIR+3
  5680  0347  0847               	movf	___CMS_KeyDatIIR@TKOldTemp,w
  5681  0348  00F2               	movwf	??___CMS_KeyDatIIR+2
  5682  0349  1003               	clrc
  5683  034A  0CF3               	rrf	??___CMS_KeyDatIIR+3,f
  5684  034B  0CF2               	rrf	??___CMS_KeyDatIIR+2,f
  5685  034C  0846               	movf	___CMS_KeyDatIIR@TKDatTemp+1,w
  5686  034D  00F5               	movwf	??___CMS_KeyDatIIR+5
  5687  034E  0845               	movf	___CMS_KeyDatIIR@TKDatTemp,w
  5688  034F  00F4               	movwf	??___CMS_KeyDatIIR+4
  5689  0350  1003               	clrc
  5690  0351  0CF5               	rrf	??___CMS_KeyDatIIR+5,f
  5691  0352  0CF4               	rrf	??___CMS_KeyDatIIR+4,f
  5692  0353  1003               	clrc
  5693  0354  0CF5               	rrf	??___CMS_KeyDatIIR+5,f
  5694  0355  0CF4               	rrf	??___CMS_KeyDatIIR+4,f
  5695  0356  1003               	clrc
  5696  0357  0CF5               	rrf	??___CMS_KeyDatIIR+5,f
  5697  0358  0CF4               	rrf	??___CMS_KeyDatIIR+4,f
  5698  0359  0846               	movf	___CMS_KeyDatIIR@TKDatTemp+1,w
  5699  035A  00F7               	movwf	??___CMS_KeyDatIIR+7
  5700  035B  0845               	movf	___CMS_KeyDatIIR@TKDatTemp,w
  5701  035C  00F6               	movwf	??___CMS_KeyDatIIR+6
  5702  035D  1003               	clrc
  5703  035E  0CF7               	rrf	??___CMS_KeyDatIIR+7,f
  5704  035F  0CF6               	rrf	??___CMS_KeyDatIIR+6,f
  5705  0360  1003               	clrc
  5706  0361  0CF7               	rrf	??___CMS_KeyDatIIR+7,f
  5707  0362  0CF6               	rrf	??___CMS_KeyDatIIR+6,f
  5708  0363  0874               	movf	??___CMS_KeyDatIIR+4,w
  5709  0364  0776               	addwf	??___CMS_KeyDatIIR+6,w
  5710  0365  00F8               	movwf	??___CMS_KeyDatIIR+8
  5711  0366  0875               	movf	??___CMS_KeyDatIIR+5,w
  5712  0367  1803               	skipnc
  5713  0368  0A75               	incf	??___CMS_KeyDatIIR+5,w
  5714  0369  0777               	addwf	??___CMS_KeyDatIIR+7,w
  5715  036A  00F9               	movwf	??___CMS_KeyDatIIR+9
  5716  036B  0872               	movf	??___CMS_KeyDatIIR+2,w
  5717  036C  0778               	addwf	??___CMS_KeyDatIIR+8,w
  5718  036D  00FA               	movwf	??___CMS_KeyDatIIR+10
  5719  036E  0873               	movf	??___CMS_KeyDatIIR+3,w
  5720  036F  1803               	skipnc
  5721  0370  0A73               	incf	??___CMS_KeyDatIIR+3,w
  5722  0371  0779               	addwf	??___CMS_KeyDatIIR+9,w
  5723  0372  00FB               	movwf	??___CMS_KeyDatIIR+11
  5724  0373  0870               	movf	??___CMS_KeyDatIIR,w
  5725  0374  077A               	addwf	??___CMS_KeyDatIIR+10,w
  5726  0375  00FC               	movwf	??___CMS_KeyDatIIR+12
  5727  0376  0871               	movf	??___CMS_KeyDatIIR+1,w
  5728  0377  1803               	skipnc
  5729  0378  0A71               	incf	??___CMS_KeyDatIIR+1,w
  5730  0379  077B               	addwf	??___CMS_KeyDatIIR+11,w
  5731  037A  00FD               	movwf	??___CMS_KeyDatIIR+13
  5732  037B  1003               	clrc
  5733  037C  0D49               	rlf	___CMS_KeyDatIIR@cnt,w
  5734  037D  3EA0               	addlw	160
  5735  037E  0084               	movwf	4
  5736  037F  087C               	movf	??___CMS_KeyDatIIR+12,w
  5737  0380  0080               	movwf	0
  5738  0381  0A84               	incf	4,f
  5739  0382  087D               	movf	??___CMS_KeyDatIIR+13,w
  5740  0383  0080               	movwf	0
  5741  0384                     i1l8360:	
  5742  0384  3004               	movlw	4
  5743  0385  0AC9               	incf	___CMS_KeyDatIIR@cnt,f
  5744  0386  0249               	subwf	___CMS_KeyDatIIR@cnt,w
  5745  0387  1803               	btfsc	3,0
  5746  0388  0008               	return
  5747  0389  2B1E               	goto	i1l8346
  5748  038A                     __end_of___CMS_KeyDatIIR:	
  5749  038A                     __ptext31:	
  5750 ;; *************** function ___CMS_KeyStopClear *****************
  5751 ;; Defined at:
  5752 ;;		line 317 in file "G:\WORK\ĽĽĘőĎŕąŘ\ĎîÄżłĚĐňżŞ·˘\´ĄĂţżâłĚĐň\´ĄĂţÔ´łĚĐň\ĐÂ´ĄĂţÔ´łĚĐň\CMS79F72x\±ę×Ľ\CÓďŃÔ\CMS_CheckTou
      +ch_PT_79F72x_V1.01(Ô´)\CMS_CheckTouch_PT_79F72x_V1.01.c"
  5753 ;; Parameters:    Size  Location     Type
  5754 ;;		None
  5755 ;; Auto vars:     Size  Location     Type
  5756 ;;  i               1    3[COMMON] unsigned char 
  5757 ;; Return value:  Size  Location     Type
  5758 ;;                  1    wreg      void 
  5759 ;; Registers used:
  5760 ;;		wreg, fsr0l, fsr0h, status,2, status,0, pclath, cstack
  5761 ;; Tracked objects:
  5762 ;;		On entry : 0/0
  5763 ;;		On exit  : B00/B00
  5764 ;;		Unchanged: 0/0
  5765 ;; Data sizes:     COMMON   BANK0   BANK1   BANK2
  5766 ;;      Params:         0       0       0       0
  5767 ;;      Locals:         1       0       0       0
  5768 ;;      Temps:          0       0       0       0
  5769 ;;      Totals:         1       0       0       0
  5770 ;;Total ram usage:        1 bytes
  5771 ;; Hardware stack levels used:    1
  5772 ;; Hardware stack levels required when called:    1
  5773 ;; This function calls:
  5774 ;;		___CMS_KeyClearOne
  5775 ;; This function is called by:
  5776 ;;		___CMS_CheckTouchKey
  5777 ;; This function uses a non-reentrant model
  5778 ;;
  5779                           
  5780                           
  5781                           ;psect for function ___CMS_KeyStopClear
  5782  038A                     ___CMS_KeyStopClear:	
  5783                           
  5784                           ;CMS_CheckTouch_PT_79F72x_V1.01.c: 319: unsigned char i;
  5785                           ;CMS_CheckTouch_PT_79F72x_V1.01.c: 320: KeyFlag[0] = 0;
  5786                           
  5787                           ;incstack = 0
  5788                           ; Regs used in ___CMS_KeyStopClear: [wreg-fsr0h+status,2+status,0+pclath+cstack]
  5789  038A  1283               	bcf	3,5	;RP0=0, select bank0
  5790  038B  1303               	bcf	3,6	;RP1=0, select bank0
  5791  038C  01AD               	clrf	_KeyFlag	;volatile
  5792                           
  5793                           ;CMS_CheckTouch_PT_79F72x_V1.01.c: 321: KeyFlag[1] = 0;
  5794  038D  01AE               	clrf	_KeyFlag+1	;volatile
  5795                           
  5796                           ;CMS_CheckTouch_PT_79F72x_V1.01.c: 322: for(i = 0; i < KeyTotalNumber; i++)
  5797  038E  01F3               	clrf	___CMS_KeyStopClear@i
  5798  038F                     i1l8054:	
  5799                           
  5800                           ;CMS_CheckTouch_PT_79F72x_V1.01.c: 323: {
  5801                           ;CMS_CheckTouch_PT_79F72x_V1.01.c: 324: __CMS_KeyClearOne(i);
  5802  038F  0873               	movf	___CMS_KeyStopClear@i,w
  5803  0390  2246  120A  118A   	fcall	___CMS_KeyClearOne
  5804  0393  3004               	movlw	4
  5805  0394  0AF3               	incf	___CMS_KeyStopClear@i,f
  5806  0395  0273               	subwf	___CMS_KeyStopClear@i,w
  5807  0396  1803               	btfsc	3,0
  5808  0397  0008               	return
  5809  0398  2B8F               	goto	i1l8054
  5810  0399                     __end_of___CMS_KeyStopClear:	
  5811  0399                     __ptext30:	
  5812 ;; *************** function ___CMS_Key_UNNOL_Check *****************
  5813 ;; Defined at:
  5814 ;;		line 775 in file "G:\WORK\ĽĽĘőĎŕąŘ\ĎîÄżłĚĐňżŞ·˘\´ĄĂţżâłĚĐň\´ĄĂţÔ´łĚĐň\ĐÂ´ĄĂţÔ´łĚĐň\CMS79F72x\±ę×Ľ\CÓďŃÔ\CMS_CheckTou
      +ch_PT_79F72x_V1.01(Ô´)\CMS_CheckTouch_PT_79F72x_V1.01.c"
  5815 ;; Parameters:    Size  Location     Type
  5816 ;;		None
  5817 ;; Auto vars:     Size  Location     Type
  5818 ;;  cnt             1    4[COMMON] unsigned char 
  5819 ;;  UnNolFlag       1    3[COMMON] unsigned char 
  5820 ;; Return value:  Size  Location     Type
  5821 ;;                  1    wreg      void 
  5822 ;; Registers used:
  5823 ;;		wreg, fsr0l, fsr0h, status,2, status,0, pclath, cstack
  5824 ;; Tracked objects:
  5825 ;;		On entry : B00/800
  5826 ;;		On exit  : 300/0
  5827 ;;		Unchanged: 0/0
  5828 ;; Data sizes:     COMMON   BANK0   BANK1   BANK2
  5829 ;;      Params:         0       0       0       0
  5830 ;;      Locals:         2       0       0       0
  5831 ;;      Temps:          2       0       0       0
  5832 ;;      Totals:         4       0       0       0
  5833 ;;Total ram usage:        4 bytes
  5834 ;; Hardware stack levels used:    1
  5835 ;; Hardware stack levels required when called:    1
  5836 ;; This function calls:
  5837 ;;		___CMS_KeyModeSet
  5838 ;; This function is called by:
  5839 ;;		___CMS_CheckTouchKey
  5840 ;; This function uses a non-reentrant model
  5841 ;;
  5842                           
  5843                           
  5844                           ;psect for function ___CMS_Key_UNNOL_Check
  5845  0399                     ___CMS_Key_UNNOL_Check:	
  5846                           
  5847                           ;CMS_CheckTouch_PT_79F72x_V1.01.c: 777: static unsigned char UnNolSec = 0;
  5848                           ;CMS_CheckTouch_PT_79F72x_V1.01.c: 778: unsigned char UnNolFlag = 0;
  5849                           
  5850                           ;incstack = 0
  5851                           ; Regs used in ___CMS_Key_UNNOL_Check: [wreg-fsr0h+status,2+status,0+pclath+cstack]
  5852  0399  01F3               	clrf	___CMS_Key_UNNOL_Check@UnNolFlag
  5853                           
  5854                           ;CMS_CheckTouch_PT_79F72x_V1.01.c: 779: unsigned char cnt = 0;
  5855  039A  01F4               	clrf	___CMS_Key_UNNOL_Check@cnt
  5856  039B                     i1l8294:	
  5857                           
  5858                           ;CMS_CheckTouch_PT_79F72x_V1.01.c: 786: __CMS_RAMCTR = 0x02;;
  5859  039B  3002               	movlw	2
  5860  039C  1683               	bsf	3,5	;RP0=1, select bank3
  5861  039D  1703               	bsf	3,6	;RP1=1, select bank3
  5862  039E  009F               	movwf	31	;volatile
  5863                           
  5864                           ;CMS_CheckTouch_PT_79F72x_V1.01.c: 787: if((KeyReference[cnt] > 2048+512+256) || (KeyRef
      +                          erence[cnt] < 2048-512-256))
  5865  039F  1003               	clrc
  5866  03A0  0D74               	rlf	___CMS_Key_UNNOL_Check@cnt,w
  5867  03A1  3EC0               	addlw	192
  5868  03A2  0084               	movwf	4
  5869  03A3  0800               	movf	0,w
  5870  03A4  00F1               	movwf	??___CMS_Key_UNNOL_Check
  5871  03A5  0A84               	incf	4,f
  5872  03A6  0800               	movf	0,w
  5873  03A7  00F2               	movwf	??___CMS_Key_UNNOL_Check+1
  5874  03A8  300B               	movlw	11
  5875  03A9  0272               	subwf	??___CMS_Key_UNNOL_Check+1,w
  5876  03AA  3001               	movlw	1
  5877  03AB  1903               	skipnz
  5878  03AC  0271               	subwf	??___CMS_Key_UNNOL_Check,w
  5879  03AD  1803               	skipnc
  5880  03AE  2BBF               	goto	i1l8300
  5881  03AF  1003               	clrc
  5882  03B0  0D74               	rlf	___CMS_Key_UNNOL_Check@cnt,w
  5883  03B1  3EC0               	addlw	192
  5884  03B2  0084               	movwf	4
  5885  03B3  0800               	movf	0,w
  5886  03B4  00F1               	movwf	??___CMS_Key_UNNOL_Check
  5887  03B5  0A84               	incf	4,f
  5888  03B6  0800               	movf	0,w
  5889  03B7  00F2               	movwf	??___CMS_Key_UNNOL_Check+1
  5890  03B8  3005               	movlw	5
  5891  03B9  0272               	subwf	??___CMS_Key_UNNOL_Check+1,w
  5892  03BA  3000               	movlw	0
  5893  03BB  1903               	skipnz
  5894  03BC  0271               	subwf	??___CMS_Key_UNNOL_Check,w
  5895  03BD  1803               	skipnc
  5896  03BE  2BC4               	goto	i1l8304
  5897  03BF                     i1l8300:	
  5898                           
  5899                           ;CMS_CheckTouch_PT_79F72x_V1.01.c: 788: {
  5900                           ;CMS_CheckTouch_PT_79F72x_V1.01.c: 789: UnNolSec++;
  5901  03BF  1283               	bcf	3,5	;RP0=0, select bank0
  5902  03C0  1303               	bcf	3,6	;RP1=0, select bank0
  5903  03C1  0AB2               	incf	___CMS_Key_UNNOL_Check@UnNolSec,f
  5904                           
  5905                           ;CMS_CheckTouch_PT_79F72x_V1.01.c: 790: UnNolFlag = 1;
  5906  03C2  01F3               	clrf	___CMS_Key_UNNOL_Check@UnNolFlag
  5907  03C3  0AF3               	incf	___CMS_Key_UNNOL_Check@UnNolFlag,f
  5908  03C4                     i1l8304:	
  5909  03C4  3004               	movlw	4
  5910  03C5  0AF4               	incf	___CMS_Key_UNNOL_Check@cnt,f
  5911  03C6  0274               	subwf	___CMS_Key_UNNOL_Check@cnt,w
  5912  03C7  1C03               	skipc
  5913  03C8  2B9B               	goto	i1l8294
  5914                           
  5915                           ;CMS_CheckTouch_PT_79F72x_V1.01.c: 793: if(0 == UnNolFlag)
  5916  03C9  0873               	movf	___CMS_Key_UNNOL_Check@UnNolFlag,w
  5917  03CA  1D03               	btfss	3,2
  5918  03CB  2BD0               	goto	i1l8310
  5919                           
  5920                           ;CMS_CheckTouch_PT_79F72x_V1.01.c: 794: {
  5921                           ;CMS_CheckTouch_PT_79F72x_V1.01.c: 795: UnNolSec = 0;
  5922  03CC  1283               	bcf	3,5	;RP0=0, select bank0
  5923  03CD  1303               	bcf	3,6	;RP1=0, select bank0
  5924  03CE  01B2               	clrf	___CMS_Key_UNNOL_Check@UnNolSec
  5925                           
  5926                           ;CMS_CheckTouch_PT_79F72x_V1.01.c: 796: }
  5927  03CF  0008               	return
  5928  03D0                     i1l8310:	
  5929                           
  5930                           ;CMS_CheckTouch_PT_79F72x_V1.01.c: 797: else if(UnNolSec >= 100)
  5931  03D0  3064               	movlw	100
  5932  03D1  1283               	bcf	3,5	;RP0=0, select bank0
  5933  03D2  1303               	bcf	3,6	;RP1=0, select bank0
  5934  03D3  0232               	subwf	___CMS_Key_UNNOL_Check@UnNolSec,w
  5935  03D4  1C03               	skipc
  5936  03D5  0008               	return
  5937  03D6  3006               	movlw	6
  5938  03D7  0AB1               	incf	___CMS_Key_UNNOL_Check@UnNolTime,f
  5939  03D8  0231               	subwf	___CMS_Key_UNNOL_Check@UnNolTime,w
  5940  03D9  1C03               	skipc
  5941  03DA  2BDD               	goto	i1l8318
  5942                           
  5943                           ;CMS_CheckTouch_PT_79F72x_V1.01.c: 800: {
  5944                           ;CMS_CheckTouch_PT_79F72x_V1.01.c: 801: UnNolTime = 0;
  5945  03DB  01B1               	clrf	___CMS_Key_UNNOL_Check@UnNolTime
  5946                           
  5947                           ;CMS_CheckTouch_PT_79F72x_V1.01.c: 802: UnNolOver = 1;
  5948  03DC  14DD               	bsf	___CMS_Key_UNNOL_Check@UnNolOver/(0+8),___CMS_Key_UNNOL_Check@UnNolOver& (0+7)
  5949  03DD                     i1l8318:	
  5950                           
  5951                           ;CMS_CheckTouch_PT_79F72x_V1.01.c: 803: }
  5952                           ;CMS_CheckTouch_PT_79F72x_V1.01.c: 804: if(!UnNolOver)
  5953  03DD  18DD               	btfsc	___CMS_Key_UNNOL_Check@UnNolOver/(0+8),___CMS_Key_UNNOL_Check@UnNolOver& (0+7)
  5954  03DE  0008               	return
  5955                           
  5956                           ;CMS_CheckTouch_PT_79F72x_V1.01.c: 805: {
  5957                           ;CMS_CheckTouch_PT_79F72x_V1.01.c: 806: UnNolSec = 0;
  5958  03DF  01B2               	clrf	___CMS_Key_UNNOL_Check@UnNolSec
  5959                           
  5960                           ;CMS_CheckTouch_PT_79F72x_V1.01.c: 807: CurCheckOver = 0;
  5961  03E0  12DD               	bcf	_CurCheckOver/(0+8),_CurCheckOver& (0+7)	;volatile
  5962                           
  5963                           ;CMS_CheckTouch_PT_79F72x_V1.01.c: 808: CurAdjustSDfst = 0;
  5964  03E1  125D               	bcf	_CurAdjustSDfst/(0+8),_CurAdjustSDfst& (0+7)	;volatile
  5965                           
  5966                           ;CMS_CheckTouch_PT_79F72x_V1.01.c: 809: for(cnt = 0; cnt < KeyTotalNumber; cnt++)
  5967  03E2  01F4               	clrf	___CMS_Key_UNNOL_Check@cnt
  5968  03E3                     i1l8330:	
  5969                           
  5970                           ;CMS_CheckTouch_PT_79F72x_V1.01.c: 810: {
  5971                           ;CMS_CheckTouch_PT_79F72x_V1.01.c: 811: __CMS_RAMCTR = 0x02;;
  5972  03E3  3002               	movlw	2
  5973  03E4  1683               	bsf	3,5	;RP0=1, select bank3
  5974  03E5  1703               	bsf	3,6	;RP1=1, select bank3
  5975  03E6  009F               	movwf	31	;volatile
  5976                           
  5977                           ;CMS_CheckTouch_PT_79F72x_V1.01.c: 812: KeyReference[cnt] = 2048+512+256;
  5978  03E7  300B               	movlw	11
  5979  03E8  01F1               	clrf	??___CMS_Key_UNNOL_Check
  5980  03E9  00F2               	movwf	??___CMS_Key_UNNOL_Check+1
  5981  03EA  1003               	clrc
  5982  03EB  0D74               	rlf	___CMS_Key_UNNOL_Check@cnt,w
  5983  03EC  3EC0               	addlw	192
  5984  03ED  0084               	movwf	4
  5985  03EE  0871               	movf	??___CMS_Key_UNNOL_Check,w
  5986  03EF  0080               	movwf	0
  5987  03F0  0A84               	incf	4,f
  5988  03F1  0872               	movf	??___CMS_Key_UNNOL_Check+1,w
  5989  03F2  0080               	movwf	0
  5990                           
  5991                           ;CMS_CheckTouch_PT_79F72x_V1.01.c: 813: __CMS_RAMCTR = 0x04;;
  5992  03F3  3004               	movlw	4
  5993  03F4  009F               	movwf	31	;volatile
  5994                           
  5995                           ;CMS_CheckTouch_PT_79F72x_V1.01.c: 814: __CMS_CurStep[cnt] = 0;
  5996  03F5  0874               	movf	___CMS_Key_UNNOL_Check@cnt,w
  5997  03F6  3ED0               	addlw	208
  5998  03F7  0084               	movwf	4
  5999  03F8  3004               	movlw	4
  6000  03F9  0180               	clrf	0
  6001  03FA  0AF4               	incf	___CMS_Key_UNNOL_Check@cnt,f
  6002  03FB  0274               	subwf	___CMS_Key_UNNOL_Check@cnt,w
  6003  03FC  1C03               	skipc
  6004  03FD  2BE3               	goto	i1l8330
  6005                           
  6006                           ;CMS_CheckTouch_PT_79F72x_V1.01.c: 815: }
  6007                           ;CMS_CheckTouch_PT_79F72x_V1.01.c: 816: b_over2 = 0;
  6008  03FE  1283               	bcf	3,5	;RP0=0, select bank0
  6009  03FF  1303               	bcf	3,6	;RP1=0, select bank0
  6010  0400  13DD               	bcf	_b_over2/(0+8),_b_over2& (0+7)	;volatile
  6011                           
  6012                           ;CMS_CheckTouch_PT_79F72x_V1.01.c: 817: __CMS_KeyModeSet();
  6013  0401  227B               	fcall	___CMS_KeyModeSet
  6014                           
  6015                           ;CMS_CheckTouch_PT_79F72x_V1.01.c: 818: b_over1 = 1;
  6016  0402  1283               	bcf	3,5	;RP0=0, select bank0
  6017  0403  1303               	bcf	3,6	;RP1=0, select bank0
  6018  0404  145E               	bsf	_b_over1/(0+8),_b_over1& (0+7)	;volatile
  6019  0405  0008               	return
  6020  0406                     __end_of___CMS_Key_UNNOL_Check:	
  6021  0406                     PL2:	
  6022  0406  1683               	bsf	3,5	;RP0=1, select bank3
  6023  0407  1703               	bsf	3,6	;RP1=1, select bank3
  6024  0408  009F               	movwf	31	;volatile
  6025  0409  1283               	bcf	3,5	;RP0=0, select bank0
  6026  040A  1303               	bcf	3,6	;RP1=0, select bank0
  6027  040B  1003               	clrc
  6028  040C  0D49               	rlf	___CMS_KeyDatIIR@cnt,w
  6029  040D  3EA0               	addlw	160
  6030  040E  0084               	movwf	4
  6031  040F  0008               	return
  6032  0410                     __end_ofPL2:	
  6033  0410                     __ptext36:	
  6034 ;; *************** function ___CMS_CheckValidTime *****************
  6035 ;; Defined at:
  6036 ;;		line 623 in file "G:\WORK\ĽĽĘőĎŕąŘ\ĎîÄżłĚĐňżŞ·˘\´ĄĂţżâłĚĐň\´ĄĂţÔ´łĚĐň\ĐÂ´ĄĂţÔ´łĚĐň\CMS79F72x\±ę×Ľ\CÓďŃÔ\CMS_CheckTou
      +ch_PT_79F72x_V1.01(Ô´)\CMS_CheckTouch_PT_79F72x_V1.01.c"
  6037 ;; Parameters:    Size  Location     Type
  6038 ;;		None
  6039 ;; Auto vars:     Size  Location     Type
  6040 ;;		None
  6041 ;; Return value:  Size  Location     Type
  6042 ;;                  1    wreg      void 
  6043 ;; Registers used:
  6044 ;;		wreg, status,2, status,0
  6045 ;; Tracked objects:
  6046 ;;		On entry : 0/0
  6047 ;;		On exit  : 300/0
  6048 ;;		Unchanged: 0/0
  6049 ;; Data sizes:     COMMON   BANK0   BANK1   BANK2
  6050 ;;      Params:         0       0       0       0
  6051 ;;      Locals:         0       0       0       0
  6052 ;;      Temps:          0       0       0       0
  6053 ;;      Totals:         0       0       0       0
  6054 ;;Total ram usage:        0 bytes
  6055 ;; Hardware stack levels used:    1
  6056 ;; This function calls:
  6057 ;;		Nothing
  6058 ;; This function is called by:
  6059 ;;		___CMS_CheckTouchKey
  6060 ;; This function uses a non-reentrant model
  6061 ;;
  6062                           
  6063                           
  6064                           ;psect for function ___CMS_CheckValidTime
  6065  0410                     ___CMS_CheckValidTime:	
  6066  0410                     i1l8192:	
  6067                           ;incstack = 0
  6068                           ; Regs used in ___CMS_CheckValidTime: [wreg+status,2+status,0]
  6069                           
  6070                           
  6071                           ;CMS_CheckTouch_PT_79F72x_V1.01.c: 628: {
  6072                           ;CMS_CheckTouch_PT_79F72x_V1.01.c: 629: if(KeyFlag[0] | KeyFlag[1])
  6073  0410  1283               	bcf	3,5	;RP0=0, select bank0
  6074  0411  1303               	bcf	3,6	;RP1=0, select bank0
  6075  0412  082E               	movf	_KeyFlag+1,w	;volatile
  6076  0413  042D               	iorwf	_KeyFlag,w	;volatile
  6077  0414  1903               	btfsc	3,2
  6078  0415  2C21               	goto	i1l8198
  6079  0416  0AA5               	incf	___CMS_CheckValidTime@validtime,f
  6080  0417  1903               	skipnz
  6081  0418  0AA6               	incf	___CMS_CheckValidTime@validtime+1,f
  6082  0419  300F               	movlw	15
  6083  041A  0226               	subwf	___CMS_CheckValidTime@validtime+1,w
  6084  041B  30A0               	movlw	160
  6085  041C  1903               	skipnz
  6086  041D  0225               	subwf	___CMS_CheckValidTime@validtime,w
  6087  041E  1C03               	skipc
  6088  041F  0008               	return
  6089                           
  6090                           ;CMS_CheckTouch_PT_79F72x_V1.01.c: 632: {
  6091                           ;CMS_CheckTouch_PT_79F72x_V1.01.c: 633: b_kerr = 1;
  6092  0420  15DD               	bsf	_b_kerr/(0+8),_b_kerr& (0+7)	;volatile
  6093  0421                     i1l8198:	
  6094                           
  6095                           ;CMS_CheckTouch_PT_79F72x_V1.01.c: 634: validtime = 0;
  6096  0421  01A5               	clrf	___CMS_CheckValidTime@validtime
  6097  0422  01A6               	clrf	___CMS_CheckValidTime@validtime+1
  6098  0423  0008               	return
  6099  0424                     __end_of___CMS_CheckValidTime:	
  6100                           
  6101                           	psect	text28
  6102  0E52                     __ptext28:	
  6103 ;; *************** function ___GET_32M_FREDAT *****************
  6104 ;; Defined at:
  6105 ;;		line 872 in file "G:\WORK\ĽĽĘőĎŕąŘ\ĎîÄżłĚĐňżŞ·˘\´ĄĂţżâłĚĐň\´ĄĂţÔ´łĚĐň\ĐÂ´ĄĂţÔ´łĚĐň\CMS79F72x\±ę×Ľ\CÓďŃÔ\CMS_CheckTou
      +ch_PT_79F72x_V1.01(Ô´)\CMS_CheckTouch_PT_79F72x_V1.01.c"
  6106 ;; Parameters:    Size  Location     Type
  6107 ;;		None
  6108 ;; Auto vars:     Size  Location     Type
  6109 ;;		None
  6110 ;; Return value:  Size  Location     Type
  6111 ;;                  1    wreg      void 
  6112 ;; Registers used:
  6113 ;;		wreg, status,2
  6114 ;; Tracked objects:
  6115 ;;		On entry : B00/B00
  6116 ;;		On exit  : B00/B00
  6117 ;;		Unchanged: 800/0
  6118 ;; Data sizes:     COMMON   BANK0   BANK1   BANK2
  6119 ;;      Params:         0       0       0       0
  6120 ;;      Locals:         0       0       0       0
  6121 ;;      Temps:          0       0       0       0
  6122 ;;      Totals:         0       0       0       0
  6123 ;;Total ram usage:        0 bytes
  6124 ;; Hardware stack levels used:    1
  6125 ;; This function calls:
  6126 ;;		Nothing
  6127 ;; This function is called by:
  6128 ;;		___CMS_CheckTouchKey
  6129 ;; This function uses a non-reentrant model
  6130 ;;
  6131                           
  6132                           
  6133                           ;psect for function ___GET_32M_FREDAT
  6134  0E52                     ___GET_32M_FREDAT:	
  6135                           
  6136                           ;CMS_CheckTouch_PT_79F72x_V1.01.c: 874: __CMS_RAMCTR = 0x04;;
  6137                           
  6138                           ;incstack = 0
  6139                           ; Regs used in ___GET_32M_FREDAT: [wreg+status,2]
  6140  0E52  3004               	movlw	4
  6141  0E53  009F               	movwf	31	;volatile
  6142                           
  6143                           ;CMS_CheckTouch_PT_79F72x_V1.01.c: 875: __CMS_KEYCON4 |= 0x01;
  6144  0E54  1414               	bsf	20,0	;volatile
  6145                           
  6146                           ;CMS_CheckTouch_PT_79F72x_V1.01.c: 876: __CMS_32M_Dat = __CMS_KEYCON2 & 0xf8;
  6147  0E55  0812               	movf	18,w	;volatile
  6148  0E56  39F8               	andlw	248
  6149  0E57  00E2               	movwf	98	;volatile
  6150                           
  6151                           ;CMS_CheckTouch_PT_79F72x_V1.01.c: 877: __CMS_32M_CT = __CMS_KEYCON4 & 0x70;
  6152  0E58  0814               	movf	20,w	;volatile
  6153  0E59  3970               	andlw	112
  6154  0E5A  00E3               	movwf	99	;volatile
  6155                           
  6156                           ;CMS_CheckTouch_PT_79F72x_V1.01.c: 878: if(__CMS_32M_CT > 0B01100000)
  6157  0E5B  3061               	movlw	97
  6158  0E5C  0263               	subwf	99,w	;volatile
  6159  0E5D  1C03               	skipc
  6160  0E5E  2E62               	goto	i1l8392
  6161                           
  6162                           ;CMS_CheckTouch_PT_79F72x_V1.01.c: 879: {
  6163                           ;CMS_CheckTouch_PT_79F72x_V1.01.c: 880: __CMS_32M_CT = 0B01100000;
  6164  0E5F  3060               	movlw	96
  6165  0E60  00E3               	movwf	99	;volatile
  6166                           
  6167                           ;CMS_CheckTouch_PT_79F72x_V1.01.c: 881: }
  6168  0E61  0008               	return
  6169  0E62                     i1l8392:	
  6170                           
  6171                           ;CMS_CheckTouch_PT_79F72x_V1.01.c: 882: else if(__CMS_32M_CT < 0B00010000)
  6172  0E62  3010               	movlw	16
  6173  0E63  0263               	subwf	99,w	;volatile
  6174  0E64  1803               	skipnc
  6175  0E65  0008               	return
  6176                           
  6177                           ;CMS_CheckTouch_PT_79F72x_V1.01.c: 883: {
  6178                           ;CMS_CheckTouch_PT_79F72x_V1.01.c: 884: __CMS_32M_CT = 0B00010000;
  6179  0E66  3010               	movlw	16
  6180  0E67  00E3               	movwf	99	;volatile
  6181  0E68  0008               	return
  6182  0E69                     __end_of___GET_32M_FREDAT:	
  6183                           
  6184                           	psect	text29
  6185  0E69                     __ptext29:	
  6186 ;; *************** function ___CMS_NewRAMClr *****************
  6187 ;; Defined at:
  6188 ;;		line 855 in file "G:\WORK\ĽĽĘőĎŕąŘ\ĎîÄżłĚĐňżŞ·˘\´ĄĂţżâłĚĐň\´ĄĂţÔ´łĚĐň\ĐÂ´ĄĂţÔ´łĚĐň\CMS79F72x\±ę×Ľ\CÓďŃÔ\CMS_CheckTou
      +ch_PT_79F72x_V1.01(Ô´)\CMS_CheckTouch_PT_79F72x_V1.01.c"
  6189 ;; Parameters:    Size  Location     Type
  6190 ;;		None
  6191 ;; Auto vars:     Size  Location     Type
  6192 ;;  i               1    0[COMMON] unsigned char 
  6193 ;; Return value:  Size  Location     Type
  6194 ;;                  1    wreg      void 
  6195 ;; Registers used:
  6196 ;;		wreg, fsr0l, fsr0h, status,2, status,0
  6197 ;; Tracked objects:
  6198 ;;		On entry : 300/0
  6199 ;;		On exit  : B00/B00
  6200 ;;		Unchanged: 0/0
  6201 ;; Data sizes:     COMMON   BANK0   BANK1   BANK2
  6202 ;;      Params:         0       0       0       0
  6203 ;;      Locals:         1       0       0       0
  6204 ;;      Temps:          0       0       0       0
  6205 ;;      Totals:         1       0       0       0
  6206 ;;Total ram usage:        1 bytes
  6207 ;; Hardware stack levels used:    1
  6208 ;; This function calls:
  6209 ;;		Nothing
  6210 ;; This function is called by:
  6211 ;;		___CMS_CheckTouchKey
  6212 ;; This function uses a non-reentrant model
  6213 ;;
  6214                           
  6215                           
  6216                           ;psect for function ___CMS_NewRAMClr
  6217  0E69                     ___CMS_NewRAMClr:	
  6218                           
  6219                           ;CMS_CheckTouch_PT_79F72x_V1.01.c: 857: unsigned char i;
  6220                           ;CMS_CheckTouch_PT_79F72x_V1.01.c: 859: for(i = 0; i < 80; i++)
  6221                           
  6222                           ;incstack = 0
  6223                           ; Regs used in ___CMS_NewRAMClr: [wreg-fsr0h+status,2+status,0]
  6224  0E69  01F0               	clrf	___CMS_NewRAMClr@i
  6225  0E6A                     i1l8368:	
  6226                           
  6227                           ;CMS_CheckTouch_PT_79F72x_V1.01.c: 860: {
  6228                           ;CMS_CheckTouch_PT_79F72x_V1.01.c: 861: __CMS_RAMCTR = 0x01;;
  6229  0E6A  3001               	movlw	1
  6230  0E6B  1683               	bsf	3,5	;RP0=1, select bank3
  6231  0E6C  1703               	bsf	3,6	;RP1=1, select bank3
  6232  0E6D  009F               	movwf	31	;volatile
  6233                           
  6234                           ;CMS_CheckTouch_PT_79F72x_V1.01.c: 862: __CMSNewRAM__[i] = 0;
  6235  0E6E  0870               	movf	___CMS_NewRAMClr@i,w
  6236  0E6F  3EA0               	addlw	160
  6237  0E70  0084               	movwf	4
  6238  0E71  3002               	movlw	2
  6239  0E72  1783               	bsf	3,7	;select IRP bank3
  6240  0E73  0180               	clrf	0
  6241                           
  6242                           ;CMS_CheckTouch_PT_79F72x_V1.01.c: 863: __CMS_RAMCTR = 0x02;;
  6243  0E74  009F               	movwf	31	;volatile
  6244                           
  6245                           ;CMS_CheckTouch_PT_79F72x_V1.01.c: 864: __CMSNewRAM__[i] = 0;
  6246  0E75  0870               	movf	___CMS_NewRAMClr@i,w
  6247  0E76  3EA0               	addlw	160
  6248  0E77  0084               	movwf	4
  6249  0E78  3004               	movlw	4
  6250  0E79  0180               	clrf	0
  6251                           
  6252                           ;CMS_CheckTouch_PT_79F72x_V1.01.c: 865: __CMS_RAMCTR = 0x04;;
  6253  0E7A  009F               	movwf	31	;volatile
  6254                           
  6255                           ;CMS_CheckTouch_PT_79F72x_V1.01.c: 866: __CMSNewRAM__[i] = 0;
  6256  0E7B  0870               	movf	___CMS_NewRAMClr@i,w
  6257  0E7C  3EA0               	addlw	160
  6258  0E7D  0084               	movwf	4
  6259  0E7E  3050               	movlw	80
  6260  0E7F  0180               	clrf	0
  6261  0E80  0AF0               	incf	___CMS_NewRAMClr@i,f
  6262  0E81  0270               	subwf	___CMS_NewRAMClr@i,w
  6263  0E82  1803               	btfsc	3,0
  6264  0E83  0008               	return
  6265  0E84  2E6A               	goto	i1l8368
  6266  0E85                     __end_of___CMS_NewRAMClr:	
  6267                           
  6268                           	psect	text35
  6269  0EB0                     __ptext35:	
  6270 ;; *************** function ___CMS_CurAdjMode *****************
  6271 ;; Defined at:
  6272 ;;		line 651 in file "G:\WORK\ĽĽĘőĎŕąŘ\ĎîÄżłĚĐňżŞ·˘\´ĄĂţżâłĚĐň\´ĄĂţÔ´łĚĐň\ĐÂ´ĄĂţÔ´łĚĐň\CMS79F72x\±ę×Ľ\CÓďŃÔ\CMS_CheckTou
      +ch_PT_79F72x_V1.01(Ô´)\CMS_CheckTouch_PT_79F72x_V1.01.c"
  6273 ;; Parameters:    Size  Location     Type
  6274 ;;		None
  6275 ;; Auto vars:     Size  Location     Type
  6276 ;;  CurStepTemp     1    0[COMMON] unsigned char 
  6277 ;; Return value:  Size  Location     Type
  6278 ;;                  1    wreg      void 
  6279 ;; Registers used:
  6280 ;;		wreg, fsr0l, fsr0h, status,2, status,0, pclath
  6281 ;; Tracked objects:
  6282 ;;		On entry : 0/0
  6283 ;;		On exit  : B00/B00
  6284 ;;		Unchanged: 0/0
  6285 ;; Data sizes:     COMMON   BANK0   BANK1   BANK2
  6286 ;;      Params:         0       0       0       0
  6287 ;;      Locals:         1       0       0       0
  6288 ;;      Temps:          0       0       0       0
  6289 ;;      Totals:         1       0       0       0
  6290 ;;Total ram usage:        1 bytes
  6291 ;; Hardware stack levels used:    2
  6292 ;; This function calls:
  6293 ;;		Nothing
  6294 ;; This function is called by:
  6295 ;;		___CMS_CurAdjust
  6296 ;; This function uses a non-reentrant model
  6297 ;;
  6298                           
  6299                           
  6300                           ;psect for function ___CMS_CurAdjMode
  6301  0EB0                     ___CMS_CurAdjMode:	
  6302  0EB0                     i1l7846:	
  6303                           ;incstack = 0
  6304 ;; hardware stack exceeded
  6305                           ; Regs used in ___CMS_CurAdjMode: [wreg-fsr0h+status,2+status,0+pclath]
  6306                           
  6307                           
  6308                           ;CMS_CheckTouch_PT_79F72x_V1.01.c: 655: __CMS_RAMCTR = 0x04;;
  6309  0EB0  3004               	movlw	4
  6310  0EB1  1683               	bsf	3,5	;RP0=1, select bank3
  6311  0EB2  1703               	bsf	3,6	;RP1=1, select bank3
  6312  0EB3  009F               	movwf	31	;volatile
  6313                           
  6314                           ;CMS_CheckTouch_PT_79F72x_V1.01.c: 656: __CMS_KEYCON1 |= (Table_KeyChannel[KeyAdrCnt] & 
      +                          0x0f);
  6315  0EB4  1283               	bcf	3,5	;RP0=0, select bank0
  6316  0EB5  1303               	bcf	3,6	;RP1=0, select bank0
  6317  0EB6  0836               	movf	_KeyAdrCnt,w
  6318  0EB7  3E29               	addlw	low ((_Table_KeyChannel-__stringbase)| (0+32768))
  6319  0EB8  0084               	movwf	4
  6320  0EB9  120A  158A  2000  120A  158A  	fcall	stringdir
  6321  0EBE  390F               	andlw	15
  6322  0EBF  1683               	bsf	3,5	;RP0=1, select bank3
  6323  0EC0  1703               	bsf	3,6	;RP1=1, select bank3
  6324  0EC1  0491               	iorwf	17,f	;volatile
  6325                           
  6326                           ;CMS_CheckTouch_PT_79F72x_V1.01.c: 657: __CMS_KEYCON2 &= ~0B00000100;
  6327  0EC2  1112               	bcf	18,2	;volatile
  6328                           
  6329                           ;CMS_CheckTouch_PT_79F72x_V1.01.c: 658: if(Table_KeyChannel[KeyAdrCnt] & 0x10)
  6330  0EC3  1283               	bcf	3,5	;RP0=0, select bank0
  6331  0EC4  1303               	bcf	3,6	;RP1=0, select bank0
  6332  0EC5  0836               	movf	_KeyAdrCnt,w
  6333  0EC6  3E29               	addlw	low ((_Table_KeyChannel-__stringbase)| (0+32768))
  6334  0EC7  0084               	movwf	4
  6335  0EC8  120A  158A  2000  120A  158A  	fcall	stringdir
  6336  0ECD  3910               	andlw	16
  6337  0ECE  1903               	btfsc	3,2
  6338  0ECF  2ED3               	goto	i1l7856
  6339                           
  6340                           ;CMS_CheckTouch_PT_79F72x_V1.01.c: 659: __CMS_KEYCON2 |= 0x04;
  6341  0ED0  1683               	bsf	3,5	;RP0=1, select bank3
  6342  0ED1  1703               	bsf	3,6	;RP1=1, select bank3
  6343  0ED2  1512               	bsf	18,2	;volatile
  6344  0ED3                     i1l7856:	
  6345                           
  6346                           ;CMS_CheckTouch_PT_79F72x_V1.01.c: 660: CurStepTemp = __CMS_CurStep[KeyAdrCnt] & 0x0f;
  6347  0ED3  1283               	bcf	3,5	;RP0=0, select bank0
  6348  0ED4  1303               	bcf	3,6	;RP1=0, select bank0
  6349  0ED5  0836               	movf	_KeyAdrCnt,w
  6350  0ED6  3ED0               	addlw	208
  6351  0ED7  0084               	movwf	4
  6352  0ED8  1783               	bsf	3,7	;select IRP bank3
  6353  0ED9  0800               	movf	0,w
  6354  0EDA  00F0               	movwf	___CMS_CurAdjMode@CurStepTemp
  6355  0EDB  300F               	movlw	15
  6356  0EDC  05F0               	andwf	___CMS_CurAdjMode@CurStepTemp,f
  6357                           
  6358                           ;CMS_CheckTouch_PT_79F72x_V1.01.c: 661: if(CurStepTemp > 5)
  6359  0EDD  3006               	movlw	6
  6360  0EDE  0270               	subwf	___CMS_CurAdjMode@CurStepTemp,w
  6361  0EDF  1C03               	skipc
  6362  0EE0  2EE3               	goto	i1l7864
  6363                           
  6364                           ;CMS_CheckTouch_PT_79F72x_V1.01.c: 662: {
  6365                           ;CMS_CheckTouch_PT_79F72x_V1.01.c: 663: CurStepTemp = 5;
  6366  0EE1  3005               	movlw	5
  6367  0EE2  00F0               	movwf	___CMS_CurAdjMode@CurStepTemp
  6368  0EE3                     i1l7864:	
  6369                           
  6370                           ;CMS_CheckTouch_PT_79F72x_V1.01.c: 664: }
  6371                           ;CMS_CheckTouch_PT_79F72x_V1.01.c: 665: __CMS_KEYCON5 &= ~0B00001110;
  6372  0EE3  30F1               	movlw	241
  6373  0EE4  1683               	bsf	3,5	;RP0=1, select bank3
  6374  0EE5  1703               	bsf	3,6	;RP1=1, select bank3
  6375  0EE6  0595               	andwf	21,f	;volatile
  6376                           
  6377                           ;CMS_CheckTouch_PT_79F72x_V1.01.c: 666: __CMS_KEYCON5 |= __CMS_CurStep_Table[CurStepTemp
      +                          ];
  6378  0EE7  0870               	movf	___CMS_CurAdjMode@CurStepTemp,w
  6379  0EE8  3E1B               	addlw	low ((___CMS_CurStep_Table-__stringbase)| (0+32768))
  6380  0EE9  0084               	movwf	4
  6381  0EEA  120A  158A  2000   	fcall	stringdir
  6382  0EED  0495               	iorwf	21,f	;volatile
  6383  0EEE  3010               	movlw	16
  6384  0EEF  0085               	movwf	5	;volatile
  6385                           
  6386                           ;CMS_CheckTouch_PT_79F72x_V1.01.c: 669: __CMS_KEYSA |= 0x80;
  6387  0EF0  1785               	bsf	5,7	;volatile
  6388  0EF1  0008               	return
  6389  0EF2                     __end_of___CMS_CurAdjMode:	


Data Sizes:
    Strings     0
    Constant    49
    Data        0
    BSS         37
    Persistent  1
    Stack       0

Auto Spaces:
    Space          Size  Autos    Used
    COMMON           14     14      14
    BANK0            80     24      64
    BANK1            80      0       0
    BANK2            80      0       0

Pointer List with Targets:

    None.

Critical Paths under _main in COMMON

    None.

Critical Paths under _ISR in COMMON

    ___CMS_CheckTouchKey->___CMS_KeyDatIIR
    ___CMS_Key_UNNOL_Check->___CMS_KeyModeSet
    ___CMS_KeyStopClear->___CMS_KeyClearOne
    ___CMS_CurAdjust->___CMS_CurAdjMode
    ___CMS_CurAdjust->___CMS_KeyModeSet
    ___CMS_CheckOnceResult->___CMS_KeyClearOne
    ___CMS_CheckKeyOldValue->___CMS_KeyIsIn
    _Display->_Display_Refresh
    _Display_Refresh->i1_SetPin

Critical Paths under _main in BANK0

    _TaskKey->_Display_SetAux
    _System_Shutdown->_Display_SetAux
    _Display_SetAux->_Display_SetSegment
    _StepMotorRun->_StepMotor
    _StepMotor->_SetStep
    _Display_UpdateData->_Display_SetDigit
    _Display_SetDigit->_Display_SetSegment
    _Display_Init->_SetPin

Critical Paths under _ISR in BANK0

    ___CMS_CheckTouchKey->___CMS_CheckKeyOldValue

Critical Paths under _main in BANK1

    None.

Critical Paths under _ISR in BANK1

    None.

Critical Paths under _main in BANK2

    None.

Critical Paths under _ISR in BANK2

    None.

Call Graph Tables:

 ---------------------------------------------------------------------------------
 (Depth) Function   	        Calls       Base Space   Used Autos Params    Refs
 ---------------------------------------------------------------------------------
 (0) _main                                                 0     0      0   11146
                       _Display_Init
                 _Display_UpdateData
                       _InitFallDown
                            _InitKey
                          _InitMotor
                            _InitPTC
                      _InitStepMotor
                         _InitTimer2
                              _Kscan
                           _PTC_Init
                       _ReadFallDown
                   _StepMotorControl
                    _System_Shutdown
                            _TaskKey
 ---------------------------------------------------------------------------------
 (1) _TaskKey                                              0     0      0    5326
                     _Display_SetAux
                        _PTC_SetDuty
                    _System_Shutdown
 ---------------------------------------------------------------------------------
 (2) _System_Shutdown                                      0     0      0    2663
                     _Display_SetAux
                        _PTC_SetDuty
 ---------------------------------------------------------------------------------
 (3) _PTC_SetDuty                                          5     5      0      91
                                             16 BANK0      5     5      0
 ---------------------------------------------------------------------------------
 (3) _Display_SetAux                                       2     1      1    2572
                                             21 BANK0      2     1      1
                 _Display_SetSegment
 ---------------------------------------------------------------------------------
 (1) _StepMotorControl                                     0     0      0     163
                       _StepMotorRun
 ---------------------------------------------------------------------------------
 (2) _StepMotorRun                                         0     0      0     163
                          _StepMotor
                          _SwitchDir
 ---------------------------------------------------------------------------------
 (3) _SwitchDir                                            0     0      0       0
 ---------------------------------------------------------------------------------
 (3) _StepMotor                                            2     1      1     163
                                             17 BANK0      2     1      1
                            _SetStep
 ---------------------------------------------------------------------------------
 (4) _SetStep                                              1     1      0      44
                                             16 BANK0      1     1      0
 ---------------------------------------------------------------------------------
 (1) _ReadFallDown                                         0     0      0       0
 ---------------------------------------------------------------------------------
 (1) _PTC_Init                                             0     0      0       0
 ---------------------------------------------------------------------------------
 (1) _Kscan                                                2     2      0     155
                                             16 BANK0      2     2      0
 ---------------------------------------------------------------------------------
 (1) _InitTimer2                                           0     0      0       0
 ---------------------------------------------------------------------------------
 (1) _InitStepMotor                                        0     0      0       0
 ---------------------------------------------------------------------------------
 (1) _InitPTC                                              0     0      0       0
 ---------------------------------------------------------------------------------
 (1) _InitMotor                                            0     0      0       0
 ---------------------------------------------------------------------------------
 (1) _InitKey                                              0     0      0       0
 ---------------------------------------------------------------------------------
 (1) _InitFallDown                                         0     0      0       0
 ---------------------------------------------------------------------------------
 (1) _Display_UpdateData                                   0     0      0    2075
                   _Display_SetDigit
 ---------------------------------------------------------------------------------
 (2) _Display_SetDigit                                     3     2      1    2075
                                             21 BANK0      3     2      1
                 _Display_SetSegment
 ---------------------------------------------------------------------------------
 (4) _Display_SetSegment                                   5     4      1    1570
                                             16 BANK0      5     4      1
 ---------------------------------------------------------------------------------
 (1) _Display_Init                                         0     0      0     764
                      _Display_Clear
                             _SetPin
 ---------------------------------------------------------------------------------
 (2) _SetPin                                               2     1      1     696
                                             16 BANK0      2     1      1
 ---------------------------------------------------------------------------------
 (2) _Display_Clear                                        1     1      0      68
                                             16 BANK0      1     1      0
 ---------------------------------------------------------------------------------
 Estimated maximum stack depth 4
 ---------------------------------------------------------------------------------
 (Depth) Function   	        Calls       Base Space   Used Autos Params    Refs
 ---------------------------------------------------------------------------------
 (5) _ISR                                                  4     4      0    3516
                                             12 BANK0      4     4      0
                            _Display
                      _PWM_Ctr_Motor
                        _PWM_Ctr_PTC
                ___CMS_CheckTouchKey
             ___CMS_GetTouchKeyValue
 ---------------------------------------------------------------------------------
 (7) ___CMS_GetTouchKeyValue                               0     0      0       0
 ---------------------------------------------------------------------------------
 (6) ___CMS_CheckTouchKey                                  0     0      0    2890
             ___CMS_CheckKeyOldValue
              ___CMS_CheckOnceResult
               ___CMS_CheckValidTime
                    ___CMS_CurAdjust
                    ___CMS_KeyDatIIR
                   ___CMS_KeyModeSet
                 ___CMS_KeyStopClear
              ___CMS_Key_UNNOL_Check
                    ___CMS_NewRAMClr
                   ___GET_32M_FREDAT
 ---------------------------------------------------------------------------------
 (7) ___GET_32M_FREDAT                                     0     0      0       0
 ---------------------------------------------------------------------------------
 (7) ___CMS_NewRAMClr                                      1     1      0     112
                                              0 COMMON     1     1      0
 ---------------------------------------------------------------------------------
 (7) ___CMS_Key_UNNOL_Check                                4     4      0     204
                                              1 COMMON     4     4      0
                   ___CMS_KeyModeSet
 ---------------------------------------------------------------------------------
 (7) ___CMS_KeyStopClear                                   1     1      0     178
                                              3 COMMON     1     1      0
                  ___CMS_KeyClearOne
 ---------------------------------------------------------------------------------
 (7) ___CMS_KeyDatIIR                                     19    19      0     223
                                              0 COMMON    14    14      0
                                              0 BANK0      5     5      0
 ---------------------------------------------------------------------------------
 (7) ___CMS_CurAdjust                                      4     4      0     231
                                              1 COMMON     4     4      0
                   ___CMS_CurAdjMode
                   ___CMS_KeyModeSet
 ---------------------------------------------------------------------------------
 (8) ___CMS_KeyModeSet                                     1     1      0      23
                                              0 COMMON     1     1      0
 ---------------------------------------------------------------------------------
 (9) ___CMS_CurAdjMode                                     1     1      0      48
                                              0 COMMON     1     1      0
 ---------------------------------------------------------------------------------
 (7) ___CMS_CheckValidTime                                 0     0      0       0
 ---------------------------------------------------------------------------------
 (7) ___CMS_CheckOnceResult                               16    16      0    1330
                                              3 COMMON     5     5      0
                                              0 BANK0     11    11      0
                  ___CMS_KeyClearOne
                  ___CMS_KeyHaveDown
                      ___CMS_KeyIsIn
                      ___CMS_KeyOpen
 ---------------------------------------------------------------------------------
 (8) ___CMS_KeyOpen                                        2     1      1     173
                                              0 COMMON     2     1      1
 ---------------------------------------------------------------------------------
 (8) ___CMS_KeyHaveDown                                    2     1      1     172
                                              0 COMMON     2     1      1
 ---------------------------------------------------------------------------------
 (8) ___CMS_KeyClearOne                                    3     3      0     110
                                              0 COMMON     3     3      0
 ---------------------------------------------------------------------------------
 (7) ___CMS_CheckKeyOldValue                              14    14      0     589
                                              2 COMMON     2     2      0
                                              0 BANK0     12    12      0
                      ___CMS_KeyIsIn
 ---------------------------------------------------------------------------------
 (9) ___CMS_KeyIsIn                                        2     2      0      69
                                              0 COMMON     2     2      0
 ---------------------------------------------------------------------------------
 (6) _PWM_Ctr_PTC                                          0     0      0       0
 ---------------------------------------------------------------------------------
 (6) _PWM_Ctr_Motor                                        0     0      0       0
 ---------------------------------------------------------------------------------
 (6) _Display                                              0     0      0     626
                    _Display_Refresh
 ---------------------------------------------------------------------------------
 (7) _Display_Refresh                                      4     4      0     626
                                              2 COMMON     4     4      0
                           i1_SetPin
 ---------------------------------------------------------------------------------
 (8) i1_SetPin                                             2     1      1     424
                                              0 COMMON     2     1      1
 ---------------------------------------------------------------------------------
 Estimated maximum stack depth 9
 ---------------------------------------------------------------------------------

 Call Graph Graphs:

 _main (ROOT)
   _Display_Init
     _Display_Clear
     _SetPin
   _Display_UpdateData
     _Display_SetDigit
       _Display_SetSegment
   _InitFallDown
   _InitKey
   _InitMotor
   _InitPTC
   _InitStepMotor
   _InitTimer2
   _Kscan
   _PTC_Init
   _ReadFallDown
   _StepMotorControl
     _StepMotorRun
       _StepMotor
         _SetStep
       _SwitchDir
   _System_Shutdown
     _Display_SetAux
       _Display_SetSegment
     _PTC_SetDuty
   _TaskKey
     _Display_SetAux
       _Display_SetSegment
     _PTC_SetDuty
     _System_Shutdown
       _Display_SetAux
         _Display_SetSegment
       _PTC_SetDuty

 _ISR (ROOT)
   _Display
     _Display_Refresh
       i1_SetPin
   _PWM_Ctr_Motor
   _PWM_Ctr_PTC
   ___CMS_CheckTouchKey
     ___CMS_CheckKeyOldValue
       ___CMS_KeyIsIn
     ___CMS_CheckOnceResult
       ___CMS_KeyClearOne
       ___CMS_KeyHaveDown
       ___CMS_KeyIsIn
       ___CMS_KeyOpen
     ___CMS_CheckValidTime
     ___CMS_CurAdjust
       ___CMS_CurAdjMode
       ___CMS_KeyModeSet
     ___CMS_KeyDatIIR
     ___CMS_KeyModeSet
     ___CMS_KeyStopClear
       ___CMS_KeyClearOne
     ___CMS_Key_UNNOL_Check
       ___CMS_KeyModeSet
     ___CMS_NewRAMClr
     ___GET_32M_FREDAT
   ___CMS_GetTouchKeyValue

 Address spaces:
Name               Size   Autos  Total    Cost      Usage
BITCOMMON            E      0       0       0        0.0%
NULL                 0      0       0       0        0.0%
CODE                 0      0       0       0        0.0%
COMMON               E      E       E       1      100.0%
BITSFR0              0      0       0       1        0.0%
SFR0                 0      0       0       1        0.0%
BITSFR1              0      0       0       2        0.0%
SFR1                 0      0       0       2        0.0%
STACK                0      0       0       2        0.0%
BITBANK0            50      0       2       3        2.5%
BANK0               50     18      40       4       80.0%
BITSFR3              0      0       0       4        0.0%
SFR3                 0      0       0       4        0.0%
BITBANK1            50      0       0       5        0.0%
BITSFR2              0      0       0       5        0.0%
SFR2                 0      0       0       5        0.0%
BANK1               50      0       0       6        0.0%
BANK2               50      0       0       7        0.0%
ABS                  0      0      4E       8        0.0%
DATA                 0      0      4E       9        0.0%
BITBANK2            50      0       0      10        0.0%


Microchip Technology PIC Macro Assembler V1.45 build -152302408 
Symbol Table                                                                                   Tue Feb 03 19:47:29 2026

                    _IntCurStepTemp 0034              __size_of_InitStepMotor 0008  
                                 _i 0029                                   pc 0002  
           __end_of_KeyShakeCounter 0837                                  PL2 0406  
                     ___CMS_KEYCON0 0190                                  PL4 078C  
                     ___CMS_KEYCON1 0191                       ___CMS_KEYCON2 0192  
                                PL6 0795                       ___CMS_KEYCON3 0193  
                     ___CMS_KEYCON4 0194                       ___CMS_KEYCON5 0195  
                     ___CMS_KEYCON6 0196                       ___CMS_KEYCON7 0197  
                     ___CMS_KEYCON8 0198                                  fsr 0004  
              ?___CMS_CheckTouchKey 0070               Display_SetSegment@src 0058  
                       _PWM_Ctr_PTC 0615                  StepMotor@stepIndex 0057  
                               l794 0F27                                 _RA3 002B  
                               _RA4 002C                                 _RB6 0036  
                               _PR2 0092                                 _ISR 05E9  
                               _Dir 003C                                 fsr0 0004  
                     ___CMSNewRAM__ 01A0                                 indf 0000  
            Display_SetSegment@sink 0059            __end_of_Table_KeyChannel 0832  
                     ?_InitFallDown 0070               ___CMS_KeyClearOne@cnt 0072  
                     ___CMS_KeyIsIn 0234                                ?_ISR 0070  
                     ___CMS_CurStep 01D0                       ___CMS_KeyOpen 0270  
            PTC_SetDuty@dutyPercent 0059                                l2302 04B5  
                              l3031 07D2                                l1560 0EA7  
                              l2290 045C                                l1556 0E9D  
                              l1558 0EA2                                l2294 0483  
                              l2298 049E                                l5182 0513  
                              l8040 0543                                l8044 0579  
                              l5901 0F9C                                l8038 0542  
                              l5903 0FA3                                l5912 0FBA  
                              l5922 0FD8                                l5914 0FC1  
                              l5907 0FAB                                l5924 0FDF  
                              l5917 0FC9                                l5909 0FB2  
                              l5926 0FF2                                l5919 0FD0  
                              l7730 05D8                                l5970 050B  
                              l7740 04FF                                l7742 0503  
                              l7734 04F3                                l8622 047C  
                              l7760 07C8                                l7744 0507  
                              l7736 04F7                                l7738 04FB  
                              l8626 047F                                l7940 07B4  
                              l7932 07A2                                l8636 0494  
                              l7758 07BE                                l7766 07DE  
                              l7960 0FB4                                l7952 0FA5  
                              l7944 0F96                                l8680 079E  
                              l8648 04AF                                l8672 04CE  
                              l8674 04DC                                l8756 0F55  
                              l8598 0EAC                                l8758 0F57  
                              l7976 0FD2                                l7968 0FC3  
                              l8688 0E36                                l7994 0FF5  
                              l7986 0FE1                                l7988 0FF3  
    __end_of___CMS_GetTouchKeyValue 06D3                                u1420 07EF  
                              u1430 07F0                                u1384 05D1  
                              u1385 05CF                                u2505 0E92  
                              u1394 05E1                                u1395 05DF  
                       main@sec_cnt 0040                        _PWM_Duty_PTC 0039  
                              _main 0EF2                       ?_ReadFallDown 0070  
                              btemp 007E          __end_of___CMS_KeyStopClear 0399  
                              start 0012      ___CMS_Key_UNNOL_Check@UnNolSec 0032  
                   Kscan@KeyOldFlag 002B            __end_of___GET_32M_FREDAT 0E69  
           Display_SetSegment@state 0055                     __end_of_Display 0608  
        Display_Refresh@current_src 0074                     __end_of_InitPTC 0E31  
                   __end_of_InitKey 0E26           Display_SetDigit@digit_pos 005B  
                             ??_ISR 0051                     __end_of_TaskKey 04DF  
             ??___CMS_CheckTouchKey 007E                     __end_of_SetStep 07DE  
                     SetPin@pin_idx 0056           ___CMS_CheckOnceResult@cnt 004F  
          ___CMS_KeyModeSet@DLTempl 0070                       _PWM_Ctr_Motor 0608  
          __size_of_System_Shutdown 0027                               ?_main 0070  
                             _T2CON 0012                       _PWM_Count_PTC 0038  
                  __end_of_LMDValue 0834                               i1l786 05FC  
                  Display_Refresh@i 0075           __size_of___CMS_CurAdjMode 0042  
                             _PORTA 0005                               _PORTB 0006  
                             _TRISA 0085                               _TRISB 0086  
                             _WPUB6 04AE                               _Kscan 0E85  
  ___CMS_CheckKeyOldValue@KeyBaseLV 0045                      ??_InitFallDown 0055  
                             _State 003E                      ?___CMS_KeyIsIn 0070  
                        _KeyBaseCnt 01C0                       _InitStepMotor 0E38  
                    ?___CMS_KeyOpen 0070                    __end_of_PTC_Init 07FF  
                  __end_ofi1_SetPin 078C                          _Key_LDOSel 0832  
                             pclath 000A                          _KeyMaxTemp 01D0  
                        _KeyCounter 01E4                      ??_ReadFallDown 0055  
                        _KeyMinTemp 01D2                               status 0003  
                             wtemp0 007E     ___CMS_Key_UNNOL_Check@UnNolFlag 0073  
   ___CMS_Key_UNNOL_Check@UnNolTime 0031     ___CMS_Key_UNNOL_Check@UnNolOver 02E9  
                        _KeyUpShake 01B0                   __end_of_DIGIT_MAP 0810  
         __size_of___CMS_KeyModeSet 001F               ___CMS_KeyHaveDown@cnt 0071  
            ??___CMS_CheckValidTime 0070                    Kscan@KeyOnOutput 0055  
                   __initialization 0015                          SetPin@mode 0055  
                        _KeyUnusual 01D4                          _InitTimer2 0E48  
                      __end_of_main 0F76                      ?_PWM_Ctr_Motor 0070  
                   ___CMS_CurAdjust 029A                              ??_main 005D  
                   ___CMS_KeyDatIIR 031D                     ___CMS_KeyIsIn@i 0070  
                   ___CMS_NewRAMClr 0E69            __end_of_StepMotorControl 07A2  
        ___CMS_CheckOnceResult@flag 004E                              ?_Kscan 0070  
                    ?_InitStepMotor 0070                __end_of_Display_Init 0F94  
                  __end_of_VolValue 0836                              _CCPR2L 001B  
                            i1l6221 0304                              i1l8000 06D3  
                            i1l8020 070D                              i1l8012 06F6  
                            i1l3764 0620                              i1l6165 06BE  
                            i1l3758 0613                              i1l8102 01BE  
                            i1l6174 0199                              i1l6158 06B2  
                            i1l6176 01C5                              i1l6184 021C  
                            i1l8210 0300                              i1l6179 01E4  
                            i1l6283 0061                              i1l8132 01FA  
                            i1l8300 03BF                              i1l6292 0071  
                            i1l5901 0727                              i1l6285 005F  
                            i1l8062 0123                              i1l8214 02A6  
                            i1l8054 038F                              i1l8310 03D0  
                            i1l5903 072F                              i1l5912 074B  
                            i1l8160 00AA                              i1l8304 03C4  
                            i1l5922 076F                              i1l5914 0753  
                            i1l8162 00BB                              i1l8146 0073  
                            i1l8330 03E3                              i1l5907 0739  
                            i1l5924 0777                              i1l8164 00BF  
                            i1l8252 02CB                              i1l5917 075D  
                            i1l5909 0741                              i1l5926 078B  
                            i1l8190 011C                              i1l8246 02E6  
                            i1l8318 03DD                              i1l8510 0039  
                            i1l5919 0765                              i1l8192 0410  
                            i1l8248 02C1                              i1l8360 0384  
                            i1l8432 064A                              i1l8186 0112  
                            i1l7802 022F                              i1l8346 031E  
                            i1l8522 0050                              i1l8268 02ED  
                            i1l8198 0421                              i1l8286 0312  
                            i1l8294 039B                              i1l8542 006E  
                            i1l8518 004A                              i1l8470 0696  
                            i1l8368 0E6A                              i1l8392 0E62  
                            i1l8456 067A                              i1l7906 0768  
                            i1l7842 0296                              i1l7916 077A  
                            i1l7780 0242                              i1l7846 0EB0  
                            i1l7792 0278                              i1l7864 0EE3  
                            i1l7856 0ED3                              i1l8496 06CC  
                            _INTCON 000B                              i1l7890 0744  
                            i1l7882 0732                              i1l7874 0720  
                            i1l7898 0756                              u173_24 0700  
                            u181_24 015D                              u173_25 06FE  
                            u181_25 015A                              u194_25 00A0  
                            u186_25 01B8                              u198_25 00E7  
                            u199_25 00FC                              _OSCCON 008F  
                            _TMR2IE 0461                              _TMR2IF 0061  
                            _TRISA3 042B                              _TRISA4 042C  
                            _TRISB6 0436                  __size_of_InitMotor 0005  
                            _CmBase 0834                           ??_Display 0076  
                         ??_InitPTC 0055                           ??_InitKey 0055  
                            _KeySum 01A0                           ??_TaskKey 005C  
                         ??_SetStep 0055                              _SetPin 0F94  
                            _b_kerr 02EB                      _PWM_Duty_Motor 003B  
                            _tcount 0041                       _Table_KeyDown 0818  
           ??___CMS_CheckOnceResult 0073                     i1SetPin@pin_idx 0071  
                      ?_PTC_SetDuty 0070                     ??___CMS_KeyIsIn 0070  
                   ??___CMS_KeyOpen 0071                              saved_w 007E  
             ___CMS_Key_UNNOL_Check 0399                     _Display_Refresh 06D3  
                __size_of_StepMotor 001E                   ??_System_Shutdown 005C  
                       _KeyOldValue 01A0      ___CMS_CheckValidTime@validtime 0025  
                __size_of_SwitchDir 0014         __size_of_Display_SetSegment 0036  
           __end_of__initialization 0020              ___CMS_KeyHaveDown@flag 0070  
                       ___CMS_KEYSA 0185                          _SwingState 02F2  
         __size_of_Display_SetDigit 0080             __end_of___CMS_CurAdjust 031D  
                     __end_of_Kscan 0EB0                         ?_InitTimer2 0070  
                    __pcstackCOMMON 0070                __end_of_InitFallDown 0E22  
           __end_of___CMS_KeyDatIIR 038A                     ??_PWM_Ctr_Motor 0070  
    ___CMS_CheckKeyOldValue@KeyBase 004A             __end_of___CMS_NewRAMClr 0E85  
    ___CMS_CheckKeyOldValue@KeyTemp 004C                           ?_PTC_Init 0070  
                         ?i1_SetPin 0070                          __end_ofPL2 0410  
                        __end_ofPL4 0795                          __end_ofPL6 079B  
                      ?_PWM_Ctr_PTC 0070                __end_of_ReadFallDown 0E38  
                 __end_of_InitMotor 0E2B         __end_of___CMS_Table_KeyFalg 0818  
                  ___CMS_CurAdjMode 0EB0                     ??_InitStepMotor 0055  
       __size_of_Display_UpdateData 000A                             ??_Kscan 0055  
        ___CMS_CurAdjust@KeySumTemp 0073                 TaskKey@lastKeyValue 003D  
         ___CMS_Key_UNNOL_Check@cnt 0074                         SetStep@step 0055  
                ___CMS_KeyOpen@flag 0070                          __pbssBANK0 0020  
                  ___CMS_KeyModeSet 027B                             ?_SetPin 0055  
                        __pmaintext 0EF2               __end_of_Display_Clear 1000  
                 ?___GET_32M_FREDAT 0070                   __end_of_StepMotor 07D3  
                        __pintentry 0004                 __end_of_StepTable_L 082E  
               __end_of_StepTable_R 082A                          ??_PTC_Init 0055  
                ??___GET_32M_FREDAT 0070                             _CCP2CON 001D  
    ___CMS_CurAdjust@CurAdjLmtTimec 0033                          ??i1_SetPin 0071  
                ___CMS_KeyStopClear 038A             __end_of_Display_Refresh 071E  
                 __end_of_SwitchDir 07F2               __size_of_Display_Init 001E  
         ___CMS_KeyDatIIR@TKDatTemp 0045              ?___CMS_Key_UNNOL_Check 0070  
                      _CurCheckOver 02ED                     _PWM_Count_Motor 003A  
               ?___CMS_KeyStopClear 0070           ___CMS_KeyDatIIR@TKOldTemp 0047  
          ??___CMS_CheckKeyOldValue 0072                 __size_of_InitTimer2 000A  
                        __stringtab 0800                 ___CMS_CurAdjust@cnt 0072  
                           _Dis_SC0 0044                             _Dis_SC1 005F  
                           _Display 0607                       _FallDownState 0042  
                           _KeyFlag 002D                             _KeyHave 01C0  
                           _InitPTC 0E2B                             _InitKey 0E22  
              ___CMS_KeyStopClear@i 0073         __end_of___CMS_CheckTouchKey 0072  
              ??___CMS_KeyStopClear 0073                             _TaskKey 0455  
                           _SetStep 07D3        ___CMS_CheckOnceResult@KHaveC 0049  
                  ?___CMS_CurAdjust 0070                     __size_of_SetPin 005F  
                      _Display_Init 0F76                           _DIGIT_MAP 0806  
                  ?___CMS_KeyDatIIR 0070       ___CMS_CheckOnceResult@KeyBase 004B  
     ___CMS_CheckOnceResult@KeyDown 0045                    ?___CMS_NewRAMClr 0070  
                    main@minute_cnt 002F                             _b_over0 02F1  
                           _b_over1 02F0                             _b_over2 02EF  
              Display_SetAux@aux_id 005B             __size_of_Display_SetAux 002D  
                           __ptext1 0455                             __ptext2 042E  
                           __ptext3 050C                             __ptext4 04DF  
                           __ptext5 079B                             __ptext6 07A2  
                           __ptext7 07DE                             __ptext8 07B5  
                           __ptext9 07D3           ___CMS_CheckTouchKey@SDfst 02E8  
                      __size_of_ISR 001E                   ?_StepMotorControl 0070  
___CMS_CheckKeyOldValue@VolValueOne 0049                  ??_StepMotorControl 0058  
              __size_of_PTC_SetDuty 0027                             clrloop0 0E41  
              end_of_initialization 0020                 ___CMS_KeyDatIIR@cnt 0049  
                    _CurAdjustSDfst 02EC               __size_of_InitFallDown 0004  
                       _StepTable_L 082A                         _StepTable_R 0826  
                         _ITRIM_Ram 01A0                    _Display_SetDigit 0533  
                     ?_StepMotorRun 0070                Display_Refresh@sinks 0073  
     __size_of___CMS_CheckValidTime 0014               __size_of_ReadFallDown 0007  
                   _System_Shutdown 042E                        _KeyReference 01C0  
                  ?_Display_Refresh 0070                        ___CMS_32M_CT 01E3  
              __size_of_PWM_Ctr_PTC 000D            ??___CMS_GetTouchKeyValue 0070  
    __size_of___CMS_CheckOnceResult 0100       __end_of___CMS_CheckOnceResult 0222  
                      ___CMS_KDARGH 019E                        ___CMS_KDARGL 019D  
                      ___CMS_KDMAXH 019C                        ___CMS_KDMAXL 019B  
                      ___CMS_KDMINH 019A                        ___CMS_KDMINL 0199  
                      _InitFallDown 0E1E                        ___CMS_RAMCTR 019F  
   __size_of___CMS_CheckKeyOldValue 00B0                        _ReadFallDown 0E31  
          __end_of___CMS_CurAdjMode 0EF2                      __end_of_CmBase 0835  
                    ??_StepMotorRun 0058                        ??_InitTimer2 0055  
                    __end_of_SetPin 0FF3                  __end_of_Key_LDOSel 0833  
                         _KeyAdrCnt 0036                       __pbitbssBANK0 02E8  
                 __size_of_PTC_Init 000D                   __size_ofi1_SetPin 006E  
          __end_of___CMS_KeyModeSet 029A                           _KeyNosieC 01E0  
               start_initialization 0015     ___CMS_CheckOnceResult@KHaveTemp 004A  
                       __end_of_ISR 0607                 ___CMS_CurStep_Table 0820  
                         _InitMotor 0E26               __end_of___CMS_KeyIsIn 0246  
             __end_of___CMS_KeyOpen 027B          __end_of_Display_SetSegment 05E9  
                __end_of_InitTimer2 0E52             __end_of_System_Shutdown 0455  
                          ??_SetPin 0056                           _TimeLimit 01D6  
            ___CMS_CheckKeyOldValue 0072               __end_of_PWM_Ctr_Motor 0615  
                         _StepCount 0027             ??___CMS_Key_UNNOL_Check 0071  
                    _Display_SetAux 04DF                           _StepMotor 07B5  
        __end_of_Display_UpdateData 042E                   ___CMS_KeyClearOne 0246  
                         ___latbits 0002                           _SwitchDir 07DE  
                 ___CMS_KeyIsIn@cnt 0071     __size_of___CMS_GetTouchKeyValue 00B1  
                     __pcstackBANK0 0045               __end_of_InitStepMotor 0E40  
                 ___CMS_KeyHaveDown 0222           __size_of___GET_32M_FREDAT 0017  
                        ?_InitMotor 0070                  ?___CMS_KeyClearOne 0070  
                 ___CMS_NewRAMClr@i 0070                  ?___CMS_KeyHaveDown 0070  
                         _b_onceerr 02EE        ___CMS_CurAdjMode@CurStepTemp 0070  
               ??___CMS_KeyClearOne 0070                            ?_Display 0070  
                 ___CMS_KeyOpen@cnt 0071                            ?_InitPTC 0070  
               ??___CMS_KeyHaveDown 0071                           __pnvBANK0 005F  
                          ?_InitKey 0070                            ?_TaskKey 0070  
                          ?_SetStep 0070              __end_of_Display_SetAux 050C  
                        ?_StepMotor 0056                           __pstrings 0800  
         __end_of___CMS_KeyClearOne 0270           __end_of___CMS_KeyHaveDown 0234  
               Display_SetDigit@map 005C                 Display_SetDigit@num 005A  
                        ?_SwitchDir 0070            __end_of_Display_SetDigit 05B3  
              __end_of_StepMotorRun 07B5                      __size_of_Kscan 002B  
        Display_SetSegment@seg_code 0057              __size_of_Display_Clear 000D  
               Display_SetAux@state 005A                   interrupt_function 0004  
                         clear_ram0 0E40           __size_of_StepMotorControl 0007  
            ___CMS_GetTouchKeyValue 0622                            _LMDValue 0833  
                       _disp_buffer 0020                    ?_System_Shutdown 0070  
       __size_of___CMS_KeyStopClear 000F                     ?_Display_SetAux 005A  
                          _PTC_Init 07F2                            i1_SetPin 071E  
      __size_of___CMS_CheckTouchKey 004E                         __stringbase 0805  
          __size_of___CMS_CurAdjust 0083               __end_of_Table_KeyDown 0820  
                    Display_Clear@i 0055            __size_of___CMS_KeyDatIIR 006D  
                     ??_PTC_SetDuty 0055            __size_of___CMS_NewRAMClr 001C  
      __end_of___CMS_CheckValidTime 0424                         ??_InitMotor 0055  
                  __size_of_Display 0001                    __size_of_InitPTC 0006  
                 ?___CMS_CurAdjMode 0070                    __size_of_InitKey 0004  
                  __size_of_TaskKey 008A                    _Table_KeyChannel 082E  
                          _TimerVal 0043                    __size_of_SetStep 000B  
                ??___CMS_CurAdjMode 0070                       _Display_Clear 0FF3  
 ___CMS_CheckKeyOldValue@KeyOldTemp 004E   ___CMS_CheckKeyOldValue@KeyOneTemp 0047  
                          _VolValue 0835      ___CMS_CheckOnceResult@KeyDownF 02EA  
                       ??_StepMotor 0057                            _WorkMode 02F3  
                     ??_PWM_Ctr_PTC 0070                  __end_of__stringtab 0806  
    ___CMS_CheckOnceResult@KeyValue 0047          __size_of___CMS_KeyClearOne 002A  
                          _SystemOn 02F4          __size_of___CMS_KeyHaveDown 0012  
                 ?___CMS_KeyModeSet 0070                         ??_SwitchDir 0055  
                  ___GET_32M_FREDAT 0E52                  ??___CMS_KeyModeSet 0070  
                          __ptext10 0E31                            __ptext11 07F2  
                          __ptext20 0533                            __ptext12 0E85  
                          __ptext21 05B3                            __ptext13 0E48  
                          __ptext30 0399                            __ptext22 0F76  
                          __ptext14 0E38                            __ptext31 038A  
                          __ptext23 0F94                            __ptext15 0E2B  
                          __ptext40 0246                            __ptext32 031D  
                          __ptext24 0FF3                            __ptext16 0E26  
                          __ptext41 0072                            __ptext33 029A  
                          __ptext25 05E9                            __ptext17 0E22  
                          __ptext42 0234                            __ptext34 027B  
                          __ptext26 0622                            __ptext18 0E1E  
                          __ptext43 0615                            __ptext35 0EB0  
                          __ptext27 0024                            __ptext19 0424  
                          __ptext44 0608                            __ptext36 0410  
                          __ptext28 0E52                            __ptext45 0607  
                          __ptext37 0122                            __ptext29 0E69  
                          __ptext46 06D3                            __ptext38 0270  
                          __ptext47 071E                            __ptext39 0222  
          __size_of_Display_Refresh 004B               ___CMS_CheckOnceResult 0122  
               __end_of_PTC_SetDuty 0533                            _keyValue 003F  
                     __size_of_main 0084                            _scan_idx 0037  
           ?___CMS_CheckKeyOldValue 0070                  _Display_SetSegment 05B3  
                    ?_Display_Clear 0070                 ___CMS_Table_KeyFalg 0810  
                PTC_SetDuty@dutyRaw 0057          ___CMS_CheckKeyOldValue@cnt 0050  
               ?_Display_SetSegment 0055               __size_of_StepMotorRun 0013  
    __size_of___CMS_Key_UNNOL_Check 006D       __end_of___CMS_Key_UNNOL_Check 0406  
                   _KeyShakeCounter 0836                          _RAMCTRBack 0035  
               __end_of_PWM_Ctr_PTC 0622                        i1SetPin@mode 0070  
                 ??___CMS_CurAdjust 0071                   ??___CMS_KeyDatIIR 0070  
                          intlevel1 0000                  _Display_UpdateData 0424  
                 ??___CMS_NewRAMClr 0070                ??_Display_SetSegment 0056  
       ___CMS_CheckOnceResult@templ 004D      __end_of___CMS_CheckKeyOldValue 0122  
                  _StepMotorControl 079B                           stringcode 0800  
               ?_Display_UpdateData 0070                        _StepMotorRun 07A2  
                     ?_Display_Init 0070                ___CMS_CheckValidTime 0410  
            __size_of___CMS_KeyIsIn 0012              __size_of___CMS_KeyOpen 000B  
                        _OPTION_REG 0081                ??_Display_UpdateData 005D  
                       _PTC_SetDuty 050C                            stringdir 0800  
                          stringtab 0800                   ?_Display_SetDigit 005A  
            ?___CMS_CheckOnceResult 0070                  ??_Display_SetDigit 005B  
                     ___CMS_32M_Dat 01E2         __end_of___CMS_CurStep_Table 0826  
               ___CMS_CheckTouchKey 0024             ?___CMS_GetTouchKeyValue 0070  
            __size_of_PWM_Ctr_Motor 000D                   ??_Display_Refresh 0072  
                   ??_Display_Clear 0055                    ??_Display_SetAux 005B  
                      StepMotor@Dir 0056                      ??_Display_Init 0057  
             ?___CMS_CheckValidTime 0070  
